
fish.exe:     file format elf64-x86-64

Contents of section .interp:
 400318 2f6c6962 36342f6c 642d6c69 6e75782d  /lib64/ld-linux-
 400328 7838362d 36342e73 6f2e3200           x86-64.so.2.    
Contents of section .note.gnu.property:
 400338 04000000 10000000 05000000 474e5500  ............GNU.
 400348 020000c0 04000000 03000000 00000000  ................
Contents of section .note.gnu.build-id:
 400358 04000000 14000000 03000000 474e5500  ............GNU.
 400368 feedfcb1 708882f9 fcf66665 60f6a352  ....p.....fe`..R
 400378 a6f72185                             ..!.            
Contents of section .note.ABI-tag:
 40037c 04000000 10000000 01000000 474e5500  ............GNU.
 40038c 00000000 03000000 02000000 00000000  ................
Contents of section .gnu.hash:
 4003a0 03000000 10000000 01000000 06000000  ................
 4003b0 00012000 80011002 10000000 11000000  .. .............
 4003c0 00000000 291d8c1c 66556110 39f28b1c  ....)...fUa.9...
Contents of section .dynsym:
 4003d0 00000000 00000000 00000000 00000000  ................
 4003e0 00000000 00000000 3f000000 12000000  ........?.......
 4003f0 00000000 00000000 00000000 00000000  ................
 400400 77000000 12000000 00000000 00000000  w...............
 400410 00000000 00000000 24000000 12000000  ........$.......
 400420 00000000 00000000 00000000 00000000  ................
 400430 2e000000 12000000 00000000 00000000  ................
 400440 00000000 00000000 91000000 12000000  ................
 400450 00000000 00000000 00000000 00000000  ................
 400460 4d000000 12000000 00000000 00000000  M...............
 400470 00000000 00000000 c5000000 20000000  ............ ...
 400480 00000000 00000000 00000000 00000000  ................
 400490 29000000 12000000 00000000 00000000  )...............
 4004a0 00000000 00000000 0b000000 12000000  ................
 4004b0 00000000 00000000 00000000 00000000  ................
 4004c0 53000000 12000000 00000000 00000000  S...............
 4004d0 00000000 00000000 89000000 12000000  ................
 4004e0 00000000 00000000 00000000 00000000  ................
 4004f0 12000000 12000000 00000000 00000000  ................
 400500 00000000 00000000 5b000000 12000000  ........[.......
 400510 00000000 00000000 00000000 00000000  ................
 400520 1f000000 12000000 00000000 00000000  ................
 400530 00000000 00000000 62000000 12000000  ........b.......
 400540 00000000 00000000 00000000 00000000  ................
 400550 70000000 11001b00 a0404000 00000000  p........@@.....
 400560 08000000 00000000 47000000 11001b00  ........G.......
 400570 b0404000 00000000 08000000 00000000  .@@.............
 400580 82000000 11001b00 c0404000 00000000  .........@@.....
 400590 08000000 00000000                    ........        
Contents of section .dynstr:
 400598 006c6962 632e736f 2e360066 666c7573  .libc.so.6.fflus
 4005a8 68005f5f 7072696e 74665f63 686b0065  h.__printf_chk.e
 4005b8 78697400 70757473 0074696d 65005f5f  xit.puts.time.__
 4005c8 73746163 6b5f6368 6b5f6661 696c0070  stack_chk_fail.p
 4005d8 75746368 61720073 7464696e 00666765  utchar.stdin.fge
 4005e8 7473006c 72616e64 34380067 65746f70  ts.lrand48.getop
 4005f8 74005f5f 66707269 6e74665f 63686b00  t.__fprintf_chk.
 400608 7374646f 75740073 74726361 7365636d  stdout.strcasecm
 400618 70007374 64657272 00737261 6e643438  p.stderr.srand48
 400628 005f5f6c 6962635f 73746172 745f6d61  .__libc_start_ma
 400638 696e0047 4c494243 5f322e33 2e340047  in.GLIBC_2.3.4.G
 400648 4c494243 5f322e34 00474c49 42435f32  LIBC_2.4.GLIBC_2
 400658 2e322e35 005f5f67 6d6f6e5f 73746172  .2.5.__gmon_star
 400668 745f5f00                             t__.            
Contents of section .gnu.version:
 40066c 00000200 02000200 03000200 02000000  ................
 40067c 02000200 02000200 04000200 02000400  ................
 40068c 02000200 0200                        ......          
Contents of section .gnu.version_r:
 400698 01000300 01000000 10000000 00000000  ................
 4006a8 74196909 00000400 a3000000 10000000  t.i.............
 4006b8 1469690d 00000300 af000000 10000000  .ii.............
 4006c8 751a6909 00000200 b9000000 00000000  u.i.............
Contents of section .rela.dyn:
 4006d8 e03f4000 00000000 06000000 05000000  .?@.............
 4006e8 00000000 00000000 e83f4000 00000000  .........?@.....
 4006f8 06000000 07000000 00000000 00000000  ................
 400708 a0404000 00000000 05000000 10000000  .@@.............
 400718 00000000 00000000 b0404000 00000000  .........@@.....
 400728 05000000 11000000 00000000 00000000  ................
 400738 c0404000 00000000 05000000 12000000  .@@.............
 400748 00000000 00000000                    ........        
Contents of section .rela.plt:
 400750 18404000 00000000 07000000 01000000  .@@.............
 400760 00000000 00000000 20404000 00000000  ........ @@.....
 400770 07000000 02000000 00000000 00000000  ................
 400780 28404000 00000000 07000000 03000000  (@@.............
 400790 00000000 00000000 30404000 00000000  ........0@@.....
 4007a0 07000000 04000000 00000000 00000000  ................
 4007b0 38404000 00000000 07000000 06000000  8@@.............
 4007c0 00000000 00000000 40404000 00000000  ........@@@.....
 4007d0 07000000 08000000 00000000 00000000  ................
 4007e0 48404000 00000000 07000000 09000000  H@@.............
 4007f0 00000000 00000000 50404000 00000000  ........P@@.....
 400800 07000000 0a000000 00000000 00000000  ................
 400810 58404000 00000000 07000000 0b000000  X@@.............
 400820 00000000 00000000 60404000 00000000  ........`@@.....
 400830 07000000 0c000000 00000000 00000000  ................
 400840 68404000 00000000 07000000 0d000000  h@@.............
 400850 00000000 00000000 70404000 00000000  ........p@@.....
 400860 07000000 0e000000 00000000 00000000  ................
 400870 78404000 00000000 07000000 0f000000  x@@.............
 400880 00000000 00000000                    ........        
Contents of section .init:
 401000 f30f1efa 4883ec08 488b05d9 2f000048  ....H...H.../..H
 401010 85c07402 ffd04883 c408c3             ..t...H....     
Contents of section .plt:
 401020 ff35e22f 0000f2ff 25e32f00 000f1f00  .5./....%./.....
 401030 f30f1efa 68000000 00f2e9e1 ffffff90  ....h...........
 401040 f30f1efa 68010000 00f2e9d1 ffffff90  ....h...........
 401050 f30f1efa 68020000 00f2e9c1 ffffff90  ....h...........
 401060 f30f1efa 68030000 00f2e9b1 ffffff90  ....h...........
 401070 f30f1efa 68040000 00f2e9a1 ffffff90  ....h...........
 401080 f30f1efa 68050000 00f2e991 ffffff90  ....h...........
 401090 f30f1efa 68060000 00f2e981 ffffff90  ....h...........
 4010a0 f30f1efa 68070000 00f2e971 ffffff90  ....h......q....
 4010b0 f30f1efa 68080000 00f2e961 ffffff90  ....h......a....
 4010c0 f30f1efa 68090000 00f2e951 ffffff90  ....h......Q....
 4010d0 f30f1efa 680a0000 00f2e941 ffffff90  ....h......A....
 4010e0 f30f1efa 680b0000 00f2e931 ffffff90  ....h......1....
 4010f0 f30f1efa 680c0000 00f2e921 ffffff90  ....h......!....
Contents of section .plt.sec:
 401100 f30f1efa f2ff250d 2f00000f 1f440000  ......%./....D..
 401110 f30f1efa f2ff2505 2f00000f 1f440000  ......%./....D..
 401120 f30f1efa f2ff25fd 2e00000f 1f440000  ......%......D..
 401130 f30f1efa f2ff25f5 2e00000f 1f440000  ......%......D..
 401140 f30f1efa f2ff25ed 2e00000f 1f440000  ......%......D..
 401150 f30f1efa f2ff25e5 2e00000f 1f440000  ......%......D..
 401160 f30f1efa f2ff25dd 2e00000f 1f440000  ......%......D..
 401170 f30f1efa f2ff25d5 2e00000f 1f440000  ......%......D..
 401180 f30f1efa f2ff25cd 2e00000f 1f440000  ......%......D..
 401190 f30f1efa f2ff25c5 2e00000f 1f440000  ......%......D..
 4011a0 f30f1efa f2ff25bd 2e00000f 1f440000  ......%......D..
 4011b0 f30f1efa f2ff25b5 2e00000f 1f440000  ......%......D..
 4011c0 f30f1efa f2ff25ad 2e00000f 1f440000  ......%......D..
Contents of section .text:
 4011d0 f30f1efa 41544c8d 257b1000 005589fd  ....ATL.%{...U..
 4011e0 31ff5348 89f3e865 ffffff48 89c7e88d  1.SH...e...H....
 4011f0 ffffff4c 89e24889 de89efe8 a0ffffff  ...L..H.........
 401200 83f8ff74 1983f870 750cc705 cc2e0000  ...t...pu.......
 401210 01000000 ebdd488b 3be85d0b 0000e8d5  ......H.;.].....
 401220 090000e8 48ffffff b9020000 00489948  ....H........H.H
 401230 f7f948ff ca7528bf 01000000 488d35d5  ..H..u(.....H.5.
 401240 0d000031 c0e846ff ffff488d 3d0a1000  ...1..F...H.=...
 401250 00e8cafe ffff488d 1d232f00 00eb6dbf  ......H..#/...m.
 401260 01000000 e8010300 00488d3d eb0f0000  .........H.=....
 401270 e8abfeff ff488d1d c42e0000 e85e0400  .....H.......^..
 401280 0089c748 98833c83 00751748 8d15ee2e  ...H..<..u.H....
 401290 0000be01 000000e8 09080000 85c074b6  ..............t.
 4012a0 ebda89fe 4889d948 8d15d22e 0000bf01  ....H..H........
 4012b0 000000e8 58080000 ebc231f6 488d157d  ....X.....1.H..}
 4012c0 2e0000e8 dd070000 85c074a9 e8190200  ..........t.....
 4012d0 0089c748 98833c83 0074df89 fe4889d9  ...H..<..t...H..
 4012e0 488d1559 2e000031 ffe82208 0000ebdc  H..Y...1..".....
 4012f0 f30f1efa 31ed4989 d15e4889 e24883e4  ....1.I..^H..H..
 401300 f0505449 c7c0201e 400048c7 c1b01d40  .PTI.. .@.H....@
 401310 0048c7c7 d0114000 ff15c22c 0000f490  .H....@....,....
 401320 f30f1efa c3662e0f 1f840000 00000090  .....f..........
 401330 b8904040 00483d90 40400074 13b80000  ..@@.H=.@@.t....
 401340 00004885 c07409bf 90404000 ffe06690  ..H..t...@@...f.
 401350 c366662e 0f1f8400 00000000 0f1f4000  .ff...........@.
 401360 be904040 004881ee 90404000 4889f048  ..@@.H...@@.H..H
 401370 c1ee3f48 c1f80348 01c648d1 fe7411b8  ..?H...H..H..t..
 401380 00000000 4885c074 07bf9040 4000ffe0  ....H..t...@@...
 401390 c366662e 0f1f8400 00000000 0f1f4000  .ff...........@.
 4013a0 f30f1efa 803d1d2d 00000075 13554889  .....=.-...u.UH.
 4013b0 e5e87aff ffffc605 0b2d0000 015dc390  ..z......-...]..
 4013c0 c366662e 0f1f8400 00000000 0f1f4000  .ff...........@.
 4013d0 f30f1efa eb8af30f 1efa31d2 488d35bd  ..........1.H.5.
 4013e0 2e000048 8d3d562d 0000833c 960089d0  ...H.=V-...<....
 4013f0 74158b0c 97ffc983 f902770b 4863d2c7  t.........w.Hc..
 401400 04960000 0000c348 ffc24883 fa0d75da  .......H..H...u.
 401410 51e85afd ffffb903 00000048 9948f7f9  Q.Z........H.H..
 401420 48ffca75 3e488d35 142d0000 31d24889  H..u>H.5.-..1.H.
 401430 f18b3c96 89d048ff c283e7fb 74f38d50  ..<...H.....t..P
 401440 014863d2 83fa0c0f 8f9b0000 008b3491  .Hc...........4.
 401450 83fe0474 094863f8 3b34b90f 4fc248ff  ...t.Hc.;4..O.H.
 401460 c2ebe1e8 08fdffff b9000400 00489948  .............H.H
 401470 f7f94881 fad30200 00752731 d2488d0d  ..H......u'1.H..
 401480 fc2c0000 488d35b5 2c000083 3c910089  .,..H.5.,...<...
 401490 d0740683 3c960075 4f48ffc2 4883fa0d  .t..<..uOH..H...
 4014a0 75e9488d 35572c00 00488d0d 902c0000  u.H.5W,..H...,..
 4014b0 488d7e34 31d289d0 f70491fb ffffff74  H.~41..........t
 4014c0 06833c96 00742148 ffc24883 fa0d75e6  ..<..t!H..H...u.
 4014d0 488d0529 2c0000c7 00000000 004883c0  H..),........H..
 4014e0 044839f8 75f1ebcc 5ac3f30f 1efa5183  .H9.u...Z.....Q.
 4014f0 3dea2b00 0000b90d 00000048 8d353e2c  =.+........H.5>,
 401500 00008b15 c42b0000 740de8c7 feffff89  .....+..t.......
 401510 05b72b00 00eb188d 420199f7 f94863c2  ..+.....B....Hc.
 401520 f70486fb ffffff74 ee89159d 2b000048  .......t....+..H
 401530 6305962b 0000488d 15c32b00 00bf0100  c..+..H...+.....
 401540 0000488d 35bb0a00 00c70482 01000000  ..H.5...........
 401550 488d1549 28000048 8b14c231 c0e82efc  H..I(..H...1....
 401560 ffff8b05 642b0000 5ac3f30f 1efa85ff  ....d+..Z.......
 401570 7405ffcf 740ac348 8d359a0a 0000eb07  t...t..H.5......
 401580 488d3594 0a0000bf 01000000 31c0e9fd  H.5.........1...
 401590 fbfffff3 0f1efa41 564c8d35 00280000  .......AVL.5.(..
 4015a0 41554154 4531e455 4889fd53 31db448b  AUATE1.UH..S1.D.
 4015b0 6c9d0041 83fd037f 1e41ffcd 781c498b  l..A.....A..x.I.
 4015c0 14de488d 35d10b00 00bf0100 000031c0  ..H.5.........1.
 4015d0 e8bbfbff ffebe241 ffc448ff c34883fb  .......A..H..H..
 4015e0 0d75cb45 85e47458 41ffcc48 8d05c60b  .u.E..tXA..H....
 4015f0 0000488d 15a30b00 00bf0100 0000480f  ..H...........H.
 401600 44d0488d 35170a00 0031c031 db4c8d25  D.H.5....1.1.L.%
 401610 8c270000 e877fbff ff837c9d 00047517  .'...w....|...u.
 401620 498b14dc 488d356f 0b0000bf 01000000  I...H.5o........
 401630 31c0e859 fbffff48 ffc34883 fb0d75d9  1..Y...H..H...u.
 401640 5bbf0a00 00005d41 5c415d41 5ee9aefa  [.....]A\A]A^...
 401650 fffff30f 1efa31c0 4531c044 03040748  ......1.E1.D...H
 401660 83c00448 83f83475 f24489c0 c3f30f1e  ...H..4u.D......
 401670 fa41554c 8d2d2627 00004154 4531e455  .AUL.-&'..ATE1.U
 401680 4889fd53 31db5183 7c9d0004 751b498b  H..S1.Q.|...u.I.
 401690 54dd00bf 01000000 31c041ff c4488d35  T.......1.A..H.5
 4016a0 f60a0000 e8e7faff ff48ffc3 4883fb0d  .........H..H...
 4016b0 75d54585 e4751348 8d356f09 0000bf01  u.E..u.H.5o.....
 4016c0 00000031 c0e8c6fa ffffbf0a 000000e8  ...1............
 4016d0 2cfaffff 5a4489e0 5b5d415c 415dc3f3  ,...ZD..[]A\A]..
 4016e0 0f1efa41 55488d35 47090000 bf010000  ...AUH.5G.......
 4016f0 0041544c 8d25862a 00005553 4881ec18  .ATL.%.*..USH...
 401700 01000064 488b0425 28000000 48898424  ...dH..%(...H..$
 401710 08010000 31c0e875 faffff48 8d3d5e2a  ....1..u...H.=^*
 401720 0000e86c feffff48 8d6c2408 488d350f  ...l...H.l$.H.5.
 401730 090000bf 01000000 31c0e851 faffff48  ........1..Q...H
 401740 8b3d5a29 0000e815 faffff48 8b155e29  .=Z).......H..^)
 401750 0000be00 01000048 89efe8e1 f9ffff48  .......H.......H
 401760 85c07507 31ffe845 faffff8a 44240884  ..u.1..E....D$..
 401770 c074b93c 0a754b48 8d3dc229 0000e8cf  .t.<.uKH.=.)....
 401780 feffff8b 0d072b00 00bf0100 0000488d  ......+.......H.
 401790 35be0800 0089c231 c0e8f2f9 ffff488d  5......1......H.
 4017a0 35d40800 00bf0100 000031c0 e8dff9ff  5.........1.....
 4017b0 ff488d3d 88290000 e8b0feff ffe965ff  .H.=.)........e.
 4017c0 ffff31c0 4883c9ff 488d35b4 08000048  ..1.H...H.5....H
 4017d0 89eff2ae 4889ef48 f7d1c644 0c0600e8  ....H..H...D....
 4017e0 2cf9ffff 0b05f628 00007513 c705ea28  ,......(..u....(
 4017f0 00000100 0000488d 3d880800 00eb4248  ......H.=.....BH
 401800 8d359208 00004889 efe802f9 ffff85c0  .5....H.........
 401810 0f844eff ffff488d 1d832500 004989dd  ..N...H...%..I..
 401820 488b3b48 85ff7412 4889eee8 e0f8ffff  H.;H..t.H.......
 401830 85c07417 4883c308 ebe6488d 3dad0800  ..t.H.....H.=...
 401840 00e8daf8 ffffe9dc feffff48 89d84c29  ...........H..L)
 401850 e848c1f8 034863d8 41833c9c 00742648  .H...Hc.A.<..t&H
 401860 8d153a2a 0000c704 9a010000 00488bb4  ..:*.........H..
 401870 24080100 00644833 34252800 0000746b  $....dH34%(...tk
 401880 e8abf8ff ffe8e6f8 ffffb903 00000048  ...............H
 401890 9948f7f9 48ffca75 0e488d3d fd070000  .H..H..u.H.=....
 4018a0 e87bf8ff ffeb1849 8b54dd00 488d3507  .{.....I.T..H.5.
 4018b0 080000bf 01000000 31c0e8d1 f8ffffe8  ........1.......
 4018c0 acf8ffff b9040000 00489948 f7f948ff  .........H.H..H.
 4018d0 ca750c48 8d3dfa07 0000e841 f8ffff48  .u.H.=.....A...H
 4018e0 8d3dfb07 0000e956 ffffff48 81c41801  .=.....V...H....
 4018f0 00005b5d 415c415d c3f30f1e fa5531c0  ..[]A\A].....U1.
 401900 53528b1c 868d53ff 83fa020f 86e60000  SR....S.........
 401910 0048ffc0 4883f80d 75e8e84b fcffff48  .H..H...u..K...H
 401920 8d3ddc07 0000e8f5 f7ffff48 8d354707  .=.........H.5G.
 401930 0000bf01 00000031 c0e852f8 ffff488d  .......1..R...H.
 401940 3dfb2700 00e823fd ffff488d 35cc0700  =.'...#...H.5...
 401950 00bf0100 000089c5 31c0e831 f8ffff48  ........1..1...H
 401960 8d3d1a28 0000e802 fdffff89 eabf0100  .=.(............
 401970 0000488d 35b00700 0089c389 c131c0e8  ..H.5........1..
 401980 0cf8ffff 39dd7d2d 488d3db4 070000e8  ....9.}-H.=.....
 401990 8cf7ffff e8d7f7ff ffb90004 0000488d  ..............H.
 4019a0 3daa0700 00489948 f7f94881 fad30200  =....H.H..H.....
 4019b0 00753deb 367e2d48 8d3db207 0000e85d  .u=.6~-H.=.....]
 4019c0 f7ffffe8 a8f7ffff b9000400 00488d3d  .............H.=
 4019d0 a6070000 489948f7 f94881fa d3020000  ....H.H..H......
 4019e0 750eeb07 488d3da5 070000e8 30f7ffff  u...H.=.....0...
 4019f0 31ffe8b9 f7ffff58 5b5dc3f3 0f1efa8b  1......X[]......
 401a00 058b2800 00488d15 b4270000 41564155  ..(..H...'..AVAU
 401a10 ffc84154 4989f489 05732800 00489855  ..ATI....s(..H.U
 401a20 89fd534c 6334824a 8d1cb64d 89f58b03  ..SLc4.J...M....
 401a30 ffc08903 83f80474 0583ff01 755b89ef  .......t....u[..
 401a40 e825fbff ff488d05 54230000 bf010000  .%...H..T#......
 401a50 00488d35 3e070000 4e8b34f0 31c04c89  .H.5>...N.4.1.L.
 401a60 f2e82af7 ffff833b 0475224c 89f2488d  ..*....;.u"L..H.
 401a70 35290700 00bf0100 000031c0 e80ff7ff  5)........1.....
 401a80 ff4c89e6 89efe86e feffffeb 0c488d3d  .L.....n.....H.=
 401a90 02060000 e887f6ff ff5b4489 e85d415c  .........[D..]A\
 401aa0 415d415e c3f30f1e fa415449 89d45589  A]A^.....ATI..U.
 401ab0 f55389fb bf010000 0029f7e8 aafaffff  .S.......)......
 401ac0 488d3df2 060000e8 54f6ffff 4c89e689  H.=.....T...L...
 401ad0 efe825ff ffff4189 c031c041 39d8752b  ..%...A..1.A9.u+
 401ae0 89efe883 faffff48 8d3dda06 0000e82d  .......H.=.....-
 401af0 f6ffff89 efe870fa ffff488d 3dd70600  ......p...H.=...
 401b00 00e81af6 ffffb801 0000005b 5d415cc3  ...........[]A\.
 401b10 f30f1efa 41574156 4989d641 554989cd  ....AWAVI..AUI..
 401b20 415441bc 01000000 554129fc 89fd5344  ATA.....UA)...SD
 401b30 89e789f3 4883ec18 e82dfaff ff4863f3  ....H....-...Hc.
 401b40 bf010000 00488d05 54220000 488d1cb5  .....H..T"..H...
 401b50 00000000 4c8b3cf0 4c8d0559 0600004d  ....L.<.L..Y...M
 401b60 8d4c1d00 488d057f 06000041 8b114c89  .L..H......A..L.
 401b70 f94c894c 2408488d 35700600 0083fa01  .L.L$.H.5p......
 401b80 4c0f45c0 31c0e805 f6ffff4c 8b4c2408  L.E.1......L.L$.
 401b90 498d041e 418b1101 1041c701 00000000  I...A....A......
 401ba0 83380475 2789efe8 bef9ffff bf010000  .8.u'...........
 401bb0 004c89fa 31c0488d 35e60500 00e8cef5  .L..1.H.5.......
 401bc0 ffff4c89 f689efe8 2dfdffff 4c89ee44  ..L.....-...L..D
 401bd0 89e7e822 fdffff89 efe88cf9 ffff4883  ..."..........H.
 401be0 c418488d 3d130600 005b5d41 5c415d41  ..H.=....[]A\A]A
 401bf0 5e415fe9 28f5ffff f30f1efa 4154488d  ^A_.(.......ATH.
 401c00 35bb2500 0031c9bf 0d000000 554889f5  5.%..1......UH..
 401c10 53c70575 26000034 00000089 c899f7ff  S..u&..4........
 401c20 89148e48 ffc14883 f93475ef 31db41bc  ...H..H..4u.1.A.
 401c30 34000000 e837f5ff ff4c89e1 4829d948  4....7...L..H).H
 401c40 9948f7f9 4885d274 1501da8b 449d0048  .H..H..t....D..H
 401c50 63d28b4c 9500894c 9d008944 950048ff  c..L...L...D..H.
 401c60 c34883fb 3375cd48 63052226 00004c8d  .H..3u.Hc."&..L.
 401c70 15472500 00488d3d 04250000 4d8d4afc  .G%..H.=.%..M.J.
 401c80 488d0db9 24000048 89c24c8d 40f24963  H...$..H..L.@.Ic
 401c90 3482ff04 b7496334 814883e8 02ff04b1  4....Ic4.H......
 401ca0 4939c075 e983ea0e 5b5d8915 e0250000  I9.u....[]...%..
 401cb0 415cc3f3 0f1efa53 89fbe8b1 f4ffff48  A\.....S.......H
 401cc0 63fb5b48 9948f7ff 89d0c3f3 0f1efa55  c.[H.H.........U
 401cd0 534889fb 4883ec28 64488b04 25280000  SH..H..(dH..%(..
 401ce0 00488944 241831c0 488d6c24 044889da  .H.D$.1.H.l$.H..
 401cf0 488d35a4 040000bf 01000000 31c0e88d  H.5.........1...
 401d00 f4ffff48 8b3d9623 0000e851 f4ffff48  ...H.=.#...Q...H
 401d10 8b159a23 0000be14 00000048 89efe81d  ...#.......H....
 401d20 f4ffff48 85c07511 bf0a0000 00e8cef3  ...H..u.........
 401d30 ffff31ff e877f4ff ff8a4424 0483e0df  ..1..w....D$....
 401d40 3c4e7412 3c597412 488d3dc0 040000e8  <Nt.<Yt.H.=.....
 401d50 ccf3ffff eb9731c0 eb05b801 00000048  ......1........H
 401d60 8b4c2418 6448330c 25280000 007405e8  .L$.dH3.%(...t..
 401d70 bcf3ffff 4883c428 5b5dc3f3 0f1efa50  ....H..([].....P
 401d80 58488d15 c0040000 be010000 00504889  XH...........PH.
 401d90 f9488b3d 28230000 31c0e821 f4ffffbf  .H.=(#..1..!....
 401da0 01000000 e807f4ff ff0f1f80 00000000  ................
 401db0 f30f1efa 41574c8d 3dd31f00 00415649  ....AWL.=....AVI
 401dc0 89d64155 4989f541 544189fc 55488d2d  ..AUI..ATA..UH.-
 401dd0 c41f0000 534c29fd 4883ec08 e81ff2ff  ....SL).H.......
 401de0 ff48c1fd 03741f31 db0f1f80 00000000  .H...t.1........
 401df0 4c89f24c 89ee4489 e741ff14 df4883c3  L..L..D..A...H..
 401e00 014839dd 75ea4883 c4085b5d 415c415d  .H9.u.H...[]A\A]
 401e10 415e415f c366662e 0f1f8400 00000000  A^A_.ff.........
 401e20 f30f1efa c3                          .....           
Contents of section .fini:
 401e28 f30f1efa 4883ec08 4883c408 c3        ....H...H....   
Contents of section .rodata:
 402000 01000200 49206173 6b20796f 7520666f  ....I ask you fo
 402010 723a2025 732e0a00 49200059 6f752000  r: %s...I .You .
 402020 202b2042 6f6f6b25 73206f66 00206e6f   + Book%s of. no
 402030 6e65000a 596f7572 2068616e 64206973  ne..Your hand is
 402040 3a00596f 75206173 6b206d65 20666f72  :.You ask me for
 402050 3a200025 64206361 72647320 696e206d  : .%d cards in m
 402060 79206861 6e642c20 25642069 6e207468  y hand, %d in th
 402070 6520706f 6f6c2e0a 004d7920 626f6f6b  e pool...My book
 402080 733a0070 00456e74 6572696e 67207072  s:.p.Entering pr
 402090 6f206d6f 64652e00 71756974 00596f75  o mode..quit.You
 4020a0 20646f6e 27742068 61766520 616e7920   don't have any 
 4020b0 6f662074 686f7365 2100596f 7520646f  of those!.You do
 4020c0 6e277420 68617665 20616e79 20257327  n't have any %s'
 4020d0 73210a00 4e6f2063 68656174 696e6721  s!..No cheating!
 4020e0 00477565 73732061 6761696e 2e004920  .Guess again..I 
 4020f0 646f6e27 7420756e 64657273 74616e64  don't understand
 402100 2100646f 6e277420 68617665 20616e79  !.don't have any
 402110 206d6f72 65206361 72647321 00596f75   more cards!.You
 402120 7220626f 6f6b733a 000a4920 68617665  r books:..I have
 402130 2025642c 20796f75 20686176 65202564   %d, you have %d
 402140 2e0a000a 596f7520 77696e21 21210043  ....You win!!!.C
 402150 68656174 65722c20 63686561 7465722c  heater, cheater,
 402160 2070756d 706b696e 20656174 65722100   pumpkin eater!.
 402170 0a492077 696e2121 21004861 68212020  .I win!!!.Hah!  
 402180 53747570 69642070 65617361 6e742100  Stupid peasant!.
 402190 0a546965 21006472 65772025 73002061  .Tie!.drew %s. a
 4021a0 6e64206d 61646520 6120626f 6f6b206f  nd made a book o
 4021b0 66202573 2773210a 00736179 2022474f  f %s's!..say "GO
 4021c0 20464953 48212200 64726577 20746865   FISH!".drew the
 4021d0 20677565 73732100 67657420 746f2061   guess!.get to a
 4021e0 736b2061 6761696e 21002773 00686176  sk again!.'s.hav
 4021f0 65202564 20257325 732e0a00 67657420  e %d %s%s...get 
 402200 616e6f74 68657220 67756573 73210049  another guess!.I
 402210 20646f6e 27742075 6e646572 7374616e   don't understan
 402220 6420796f 75722061 6e737765 723b2070  d your answer; p
 402230 6c656173 6520656e 74657220 27792720  lease enter 'y' 
 402240 6f722027 6e272100 75736167 653a2025  or 'n'!.usage: %
 402250 73205b2d 705d0a00 70680067 65742074  s [-p]..ph.get t
 402260 6f207374 6172742e 00410032 00330034  o start..A.2.3.4
 402270 00350036 00370038 00390031 30004a00  .5.6.7.8.9.10.J.
 402280 51004b00                             Q.K.            
Contents of section .eh_frame_hdr:
 402284 011b033b b8000000 16000000 9cedffff  ...;............
 402294 fc000000 7ceeffff 24010000 4cefffff  ....|...$...L...
 4022a4 a8030000 6cf0ffff d4000000 9cf0ffff  ....l...........
 4022b4 e8000000 52f1ffff 3c010000 66f2ffff  ....R...<...f...
 4022c4 54010000 e6f2ffff 6c010000 0ff3ffff  T.......l.......
 4022d4 80010000 cef3ffff bc010000 e9f3ffff  ................
 4022e4 d0010000 5bf4ffff 08020000 75f6ffff  ....[.......u...
 4022f4 44020000 77f7ffff 6c020000 21f8ffff  D...w...l...!...
 402304 a8020000 8cf8ffff d4020000 74f9ffff  ............t...
 402314 1c030000 2ffaffff 48030000 47faffff  ..../...H...G...
 402324 64030000 f7faffff 8c030000 2cfbffff  d...........,...
 402334 cc030000 9cfbffff 14040000           ............    
Contents of section .eh_frame:
 402340 14000000 00000000 017a5200 01781001  .........zR..x..
 402350 1b0c0708 90010000 10000000 1c000000  ................
 402360 90efffff 2f000000 00440710 10000000  ..../....D......
 402370 30000000 acefffff 05000000 00000000  0...............
 402380 24000000 44000000 98ecffff e0000000  $...D...........
 402390 000e1046 0e184a0f 0b770880 003f1a3a  ...F..J..w...?.:
 4023a0 2a332422 00000000 14000000 6c000000  *3$"........l...
 4023b0 50edffff d0000000 00000000 00000000  P...............
 4023c0 14000000 84000000 0ef0ffff 14010000  ................
 4023d0 007b0e10 02d80e08 14000000 9c000000  .{..............
 4023e0 0af1ffff 80000000 00450e10 027a0e08  .........E...z..
 4023f0 10000000 b4000000 72f1ffff 29000000  ........r...)...
 402400 00000000 38000000 c8000000 87f1ffff  ....8...........
 402410 bf000000 00460e10 8e02490e 188d0342  .....F....I....B
 402420 0e208c04 440e2886 05440e30 83060295  . ..D.(..D.0....
 402430 0e28460e 20420e18 420e1042 0e080000  .(F. B..B..B....
 402440 10000000 04010000 0af2ffff 1b000000  ................
 402450 00000000 34000000 18010000 11f2ffff  ....4...........
 402460 72000000 00460e10 8d02490e 188c0344  r....F....I....D
 402470 0e208604 440e2883 05430e30 024e0e28  . ..D.(..C.0.N.(
 402480 440e2041 0e18420e 10420e08 38000000  D. A..B..B..8...
 402490 50010000 4bf2ffff 1a020000 00460e10  P...K........F..
 4024a0 8d024e0e 188c0348 0e208604 410e2883  ..N....H. ..A.(.
 4024b0 05470ec0 0203ef01 0e28410e 20410e18  .G.......(A. A..
 4024c0 420e1042 0e080000 24000000 8c010000  B..B....$.......
 4024d0 29f4ffff 02010000 00450e10 8602430e  )........E....C.
 4024e0 18830341 0e2002f6 0e18410e 10410e08  ...A. ....A..A..
 4024f0 38000000 b4010000 03f5ffff aa000000  8...............
 402500 00530e10 8e02420e 188d0344 0e208c04  .S....B....D. ..
 402510 4c0e2886 05430e30 83060277 0e28440e  L.(..C.0...w.(D.
 402520 20420e18 420e1042 0e080000 28000000   B..B..B....(...
 402530 f0010000 71f5ffff 6b000000 00460e10  ....q...k....F..
 402540 8c02440e 18860343 0e208304 025a0e18  ..D....C. ...Z..
 402550 410e1042 0e080000 44000000 1c020000  A..B....D.......
 402560 b0f5ffff e8000000 00460e10 8f02420e  .........F....B.
 402570 188e0345 0e208d04 450e288c 05470e30  ...E. ..E.(..G.0
 402580 8606460e 38830749 0e5002aa 0e38480e  ..F.8..I.P...8H.
 402590 30410e28 420e2042 0e18420e 10420e08  0A.(B. B..B..B..
 4025a0 28000000 64020000 50f6ffff bb000000  (...d...P.......
 4025b0 00460e10 8c024f0e 18860344 0e208304  .F....O....D. ..
 4025c0 02980e18 410e1048 0e080000 18000000  ....A..H........
 4025d0 90020000 dff6ffff 18000000 00450e10  .............E..
 4025e0 83024b0e 08000000 24000000 ac020000  ..K.....$.......
 4025f0 dbf6ffff b0000000 00450e10 8602410e  .........E....A.
 402600 18830347 0e4002a0 0e18410e 10410e08  ...G.@....A..A..
 402610 18000000 d4020000 63f7ffff 2e000000  ........c.......
 402620 00450e10 410e084d 0e100000 20000000  .E..A..M.... ...
 402630 f0020000 9cebffff 20010000 00460e10  ........ ....F..
 402640 8c02480e 18860345 0e208304 00000000  ..H....E. ......
 402650 44000000 14030000 58f7ffff 65000000  D.......X...e...
 402660 00460e10 8f02490e 188e0345 0e208d04  .F....I....E. ..
 402670 450e288c 05440e30 8606480e 38830747  E.(..D.0..H.8..G
 402680 0e406e0e 38410e30 410e2842 0e20420e  .@n.8A.0A.(B. B.
 402690 18420e10 420e0800 10000000 5c030000  .B..B.......\...
 4026a0 80f7ffff 05000000 00000000 00000000  ................
Contents of section .init_array:
 403d90 d0134000 00000000                    ..@.....        
Contents of section .fini_array:
 403d98 a0134000 00000000                    ..@.....        
Contents of section .data.rel.ro:
 403da0 69224000 00000000 6b224000 00000000  i"@.....k"@.....
 403db0 6d224000 00000000 6f224000 00000000  m"@.....o"@.....
 403dc0 71224000 00000000 73224000 00000000  q"@.....s"@.....
 403dd0 75224000 00000000 77224000 00000000  u"@.....w"@.....
 403de0 79224000 00000000 7b224000 00000000  y"@.....{"@.....
 403df0 7e224000 00000000 80224000 00000000  ~"@......"@.....
 403e00 82224000 00000000 00000000 00000000  ."@.............
Contents of section .dynamic:
 403e10 01000000 00000000 01000000 00000000  ................
 403e20 0c000000 00000000 00104000 00000000  ..........@.....
 403e30 0d000000 00000000 281e4000 00000000  ........(.@.....
 403e40 19000000 00000000 903d4000 00000000  .........=@.....
 403e50 1b000000 00000000 08000000 00000000  ................
 403e60 1a000000 00000000 983d4000 00000000  .........=@.....
 403e70 1c000000 00000000 08000000 00000000  ................
 403e80 f5feff6f 00000000 a0034000 00000000  ...o......@.....
 403e90 05000000 00000000 98054000 00000000  ..........@.....
 403ea0 06000000 00000000 d0034000 00000000  ..........@.....
 403eb0 0a000000 00000000 d4000000 00000000  ................
 403ec0 0b000000 00000000 18000000 00000000  ................
 403ed0 15000000 00000000 00000000 00000000  ................
 403ee0 03000000 00000000 00404000 00000000  .........@@.....
 403ef0 02000000 00000000 38010000 00000000  ........8.......
 403f00 14000000 00000000 07000000 00000000  ................
 403f10 17000000 00000000 50074000 00000000  ........P.@.....
 403f20 07000000 00000000 d8064000 00000000  ..........@.....
 403f30 08000000 00000000 78000000 00000000  ........x.......
 403f40 09000000 00000000 18000000 00000000  ................
 403f50 feffff6f 00000000 98064000 00000000  ...o......@.....
 403f60 ffffff6f 00000000 01000000 00000000  ...o............
 403f70 f0ffff6f 00000000 6c064000 00000000  ...o....l.@.....
 403f80 00000000 00000000 00000000 00000000  ................
 403f90 00000000 00000000 00000000 00000000  ................
 403fa0 00000000 00000000 00000000 00000000  ................
 403fb0 00000000 00000000 00000000 00000000  ................
 403fc0 00000000 00000000 00000000 00000000  ................
 403fd0 00000000 00000000 00000000 00000000  ................
Contents of section .got:
 403fe0 00000000 00000000 00000000 00000000  ................
Contents of section .got.plt:
 404000 103e4000 00000000 00000000 00000000  .>@.............
 404010 00000000 00000000 30104000 00000000  ........0.@.....
 404020 40104000 00000000 50104000 00000000  @.@.....P.@.....
 404030 60104000 00000000 70104000 00000000  `.@.....p.@.....
 404040 80104000 00000000 90104000 00000000  ..@.......@.....
 404050 a0104000 00000000 b0104000 00000000  ..@.......@.....
 404060 c0104000 00000000 d0104000 00000000  ..@.......@.....
 404070 e0104000 00000000 f0104000 00000000  ..@.......@.....
Contents of section .data:
 404080 00000000 00000000 00000000 00000000  ................
Contents of section .comment:
 0000 4743433a 20285562 756e7475 20392e33  GCC: (Ubuntu 9.3
 0010 2e302d31 37756275 6e747531 7e32302e  .0-17ubuntu1~20.
 0020 30342920 392e332e 3000               04) 9.3.0.      

Disassembly of section .init:

0000000000401000 <_init>:
  401000:	f3 0f 1e fa          	endbr64 
  401004:	48 83 ec 08          	sub    $0x8,%rsp
  401008:	48 8b 05 d9 2f 00 00 	mov    0x2fd9(%rip),%rax        # 403fe8 <__gmon_start__>
  40100f:	48 85 c0             	test   %rax,%rax
  401012:	74 02                	je     401016 <_init+0x16>
  401014:	ff d0                	callq  *%rax
  401016:	48 83 c4 08          	add    $0x8,%rsp
  40101a:	c3                   	retq   

Disassembly of section .plt:

0000000000401020 <.plt>:
  401020:	ff 35 e2 2f 00 00    	pushq  0x2fe2(%rip)        # 404008 <_GLOBAL_OFFSET_TABLE_+0x8>
  401026:	f2 ff 25 e3 2f 00 00 	bnd jmpq *0x2fe3(%rip)        # 404010 <_GLOBAL_OFFSET_TABLE_+0x10>
  40102d:	0f 1f 00             	nopl   (%rax)
  401030:	f3 0f 1e fa          	endbr64 
  401034:	68 00 00 00 00       	pushq  $0x0
  401039:	f2 e9 e1 ff ff ff    	bnd jmpq 401020 <.plt>
  40103f:	90                   	nop
  401040:	f3 0f 1e fa          	endbr64 
  401044:	68 01 00 00 00       	pushq  $0x1
  401049:	f2 e9 d1 ff ff ff    	bnd jmpq 401020 <.plt>
  40104f:	90                   	nop
  401050:	f3 0f 1e fa          	endbr64 
  401054:	68 02 00 00 00       	pushq  $0x2
  401059:	f2 e9 c1 ff ff ff    	bnd jmpq 401020 <.plt>
  40105f:	90                   	nop
  401060:	f3 0f 1e fa          	endbr64 
  401064:	68 03 00 00 00       	pushq  $0x3
  401069:	f2 e9 b1 ff ff ff    	bnd jmpq 401020 <.plt>
  40106f:	90                   	nop
  401070:	f3 0f 1e fa          	endbr64 
  401074:	68 04 00 00 00       	pushq  $0x4
  401079:	f2 e9 a1 ff ff ff    	bnd jmpq 401020 <.plt>
  40107f:	90                   	nop
  401080:	f3 0f 1e fa          	endbr64 
  401084:	68 05 00 00 00       	pushq  $0x5
  401089:	f2 e9 91 ff ff ff    	bnd jmpq 401020 <.plt>
  40108f:	90                   	nop
  401090:	f3 0f 1e fa          	endbr64 
  401094:	68 06 00 00 00       	pushq  $0x6
  401099:	f2 e9 81 ff ff ff    	bnd jmpq 401020 <.plt>
  40109f:	90                   	nop
  4010a0:	f3 0f 1e fa          	endbr64 
  4010a4:	68 07 00 00 00       	pushq  $0x7
  4010a9:	f2 e9 71 ff ff ff    	bnd jmpq 401020 <.plt>
  4010af:	90                   	nop
  4010b0:	f3 0f 1e fa          	endbr64 
  4010b4:	68 08 00 00 00       	pushq  $0x8
  4010b9:	f2 e9 61 ff ff ff    	bnd jmpq 401020 <.plt>
  4010bf:	90                   	nop
  4010c0:	f3 0f 1e fa          	endbr64 
  4010c4:	68 09 00 00 00       	pushq  $0x9
  4010c9:	f2 e9 51 ff ff ff    	bnd jmpq 401020 <.plt>
  4010cf:	90                   	nop
  4010d0:	f3 0f 1e fa          	endbr64 
  4010d4:	68 0a 00 00 00       	pushq  $0xa
  4010d9:	f2 e9 41 ff ff ff    	bnd jmpq 401020 <.plt>
  4010df:	90                   	nop
  4010e0:	f3 0f 1e fa          	endbr64 
  4010e4:	68 0b 00 00 00       	pushq  $0xb
  4010e9:	f2 e9 31 ff ff ff    	bnd jmpq 401020 <.plt>
  4010ef:	90                   	nop
  4010f0:	f3 0f 1e fa          	endbr64 
  4010f4:	68 0c 00 00 00       	pushq  $0xc
  4010f9:	f2 e9 21 ff ff ff    	bnd jmpq 401020 <.plt>
  4010ff:	90                   	nop

Disassembly of section .plt.sec:

0000000000401100 <putchar@plt>:
  401100:	f3 0f 1e fa          	endbr64 
  401104:	f2 ff 25 0d 2f 00 00 	bnd jmpq *0x2f0d(%rip)        # 404018 <putchar@GLIBC_2.2.5>
  40110b:	0f 1f 44 00 00       	nopl   0x0(%rax,%rax,1)

0000000000401110 <strcasecmp@plt>:
  401110:	f3 0f 1e fa          	endbr64 
  401114:	f2 ff 25 05 2f 00 00 	bnd jmpq *0x2f05(%rip)        # 404020 <strcasecmp@GLIBC_2.2.5>
  40111b:	0f 1f 44 00 00       	nopl   0x0(%rax,%rax,1)

0000000000401120 <puts@plt>:
  401120:	f3 0f 1e fa          	endbr64 
  401124:	f2 ff 25 fd 2e 00 00 	bnd jmpq *0x2efd(%rip)        # 404028 <puts@GLIBC_2.2.5>
  40112b:	0f 1f 44 00 00       	nopl   0x0(%rax,%rax,1)

0000000000401130 <__stack_chk_fail@plt>:
  401130:	f3 0f 1e fa          	endbr64 
  401134:	f2 ff 25 f5 2e 00 00 	bnd jmpq *0x2ef5(%rip)        # 404030 <__stack_chk_fail@GLIBC_2.4>
  40113b:	0f 1f 44 00 00       	nopl   0x0(%rax,%rax,1)

0000000000401140 <fgets@plt>:
  401140:	f3 0f 1e fa          	endbr64 
  401144:	f2 ff 25 ed 2e 00 00 	bnd jmpq *0x2eed(%rip)        # 404038 <fgets@GLIBC_2.2.5>
  40114b:	0f 1f 44 00 00       	nopl   0x0(%rax,%rax,1)

0000000000401150 <time@plt>:
  401150:	f3 0f 1e fa          	endbr64 
  401154:	f2 ff 25 e5 2e 00 00 	bnd jmpq *0x2ee5(%rip)        # 404040 <time@GLIBC_2.2.5>
  40115b:	0f 1f 44 00 00       	nopl   0x0(%rax,%rax,1)

0000000000401160 <fflush@plt>:
  401160:	f3 0f 1e fa          	endbr64 
  401164:	f2 ff 25 dd 2e 00 00 	bnd jmpq *0x2edd(%rip)        # 404048 <fflush@GLIBC_2.2.5>
  40116b:	0f 1f 44 00 00       	nopl   0x0(%rax,%rax,1)

0000000000401170 <lrand48@plt>:
  401170:	f3 0f 1e fa          	endbr64 
  401174:	f2 ff 25 d5 2e 00 00 	bnd jmpq *0x2ed5(%rip)        # 404050 <lrand48@GLIBC_2.2.5>
  40117b:	0f 1f 44 00 00       	nopl   0x0(%rax,%rax,1)

0000000000401180 <srand48@plt>:
  401180:	f3 0f 1e fa          	endbr64 
  401184:	f2 ff 25 cd 2e 00 00 	bnd jmpq *0x2ecd(%rip)        # 404058 <srand48@GLIBC_2.2.5>
  40118b:	0f 1f 44 00 00       	nopl   0x0(%rax,%rax,1)

0000000000401190 <__printf_chk@plt>:
  401190:	f3 0f 1e fa          	endbr64 
  401194:	f2 ff 25 c5 2e 00 00 	bnd jmpq *0x2ec5(%rip)        # 404060 <__printf_chk@GLIBC_2.3.4>
  40119b:	0f 1f 44 00 00       	nopl   0x0(%rax,%rax,1)

00000000004011a0 <getopt@plt>:
  4011a0:	f3 0f 1e fa          	endbr64 
  4011a4:	f2 ff 25 bd 2e 00 00 	bnd jmpq *0x2ebd(%rip)        # 404068 <getopt@GLIBC_2.2.5>
  4011ab:	0f 1f 44 00 00       	nopl   0x0(%rax,%rax,1)

00000000004011b0 <exit@plt>:
  4011b0:	f3 0f 1e fa          	endbr64 
  4011b4:	f2 ff 25 b5 2e 00 00 	bnd jmpq *0x2eb5(%rip)        # 404070 <exit@GLIBC_2.2.5>
  4011bb:	0f 1f 44 00 00       	nopl   0x0(%rax,%rax,1)

00000000004011c0 <__fprintf_chk@plt>:
  4011c0:	f3 0f 1e fa          	endbr64 
  4011c4:	f2 ff 25 ad 2e 00 00 	bnd jmpq *0x2ead(%rip)        # 404078 <__fprintf_chk@GLIBC_2.3.4>
  4011cb:	0f 1f 44 00 00       	nopl   0x0(%rax,%rax,1)

Disassembly of section .text:

00000000004011d0 <main>:
  4011d0:	f3 0f 1e fa          	endbr64 
  4011d4:	41 54                	push   %r12
  4011d6:	4c 8d 25 7b 10 00 00 	lea    0x107b(%rip),%r12        # 402258 <_IO_stdin_used+0x258>
  4011dd:	55                   	push   %rbp
  4011de:	89 fd                	mov    %edi,%ebp
  4011e0:	31 ff                	xor    %edi,%edi
  4011e2:	53                   	push   %rbx
  4011e3:	48 89 f3             	mov    %rsi,%rbx
  4011e6:	e8 65 ff ff ff       	callq  401150 <time@plt>
  4011eb:	48 89 c7             	mov    %rax,%rdi
  4011ee:	e8 8d ff ff ff       	callq  401180 <srand48@plt>
  4011f3:	4c 89 e2             	mov    %r12,%rdx
  4011f6:	48 89 de             	mov    %rbx,%rsi
  4011f9:	89 ef                	mov    %ebp,%edi
  4011fb:	e8 a0 ff ff ff       	callq  4011a0 <getopt@plt>
  401200:	83 f8 ff             	cmp    $0xffffffff,%eax
  401203:	74 19                	je     40121e <main+0x4e>
  401205:	83 f8 70             	cmp    $0x70,%eax
  401208:	75 0c                	jne    401216 <main+0x46>
  40120a:	c7 05 cc 2e 00 00 01 	movl   $0x1,0x2ecc(%rip)        # 4040e0 <promode>
  401211:	00 00 00 
  401214:	eb dd                	jmp    4011f3 <main+0x23>
  401216:	48 8b 3b             	mov    (%rbx),%rdi
  401219:	e8 5d 0b 00 00       	callq  401d7b <usage>
  40121e:	e8 d5 09 00 00       	callq  401bf8 <init>
  401223:	e8 48 ff ff ff       	callq  401170 <lrand48@plt>
  401228:	b9 02 00 00 00       	mov    $0x2,%ecx
  40122d:	48 99                	cqto   
  40122f:	48 f7 f9             	idiv   %rcx
  401232:	48 ff ca             	dec    %rdx
  401235:	75 28                	jne    40125f <main+0x8f>
  401237:	bf 01 00 00 00       	mov    $0x1,%edi
  40123c:	48 8d 35 d5 0d 00 00 	lea    0xdd5(%rip),%rsi        # 402018 <_IO_stdin_used+0x18>
  401243:	31 c0                	xor    %eax,%eax
  401245:	e8 46 ff ff ff       	callq  401190 <__printf_chk@plt>
  40124a:	48 8d 3d 0a 10 00 00 	lea    0x100a(%rip),%rdi        # 40225b <_IO_stdin_used+0x25b>
  401251:	e8 ca fe ff ff       	callq  401120 <puts@plt>
  401256:	48 8d 1d 23 2f 00 00 	lea    0x2f23(%rip),%rbx        # 404180 <userhand>
  40125d:	eb 6d                	jmp    4012cc <main+0xfc>
  40125f:	bf 01 00 00 00       	mov    $0x1,%edi
  401264:	e8 01 03 00 00       	callq  40156a <printplayer>
  401269:	48 8d 3d eb 0f 00 00 	lea    0xfeb(%rip),%rdi        # 40225b <_IO_stdin_used+0x25b>
  401270:	e8 ab fe ff ff       	callq  401120 <puts@plt>
  401275:	48 8d 1d c4 2e 00 00 	lea    0x2ec4(%rip),%rbx        # 404140 <comphand>
  40127c:	e8 5e 04 00 00       	callq  4016df <usermove>
  401281:	89 c7                	mov    %eax,%edi
  401283:	48 98                	cltq   
  401285:	83 3c 83 00          	cmpl   $0x0,(%rbx,%rax,4)
  401289:	75 17                	jne    4012a2 <main+0xd2>
  40128b:	48 8d 15 ee 2e 00 00 	lea    0x2eee(%rip),%rdx        # 404180 <userhand>
  401292:	be 01 00 00 00       	mov    $0x1,%esi
  401297:	e8 09 08 00 00       	callq  401aa5 <gofish>
  40129c:	85 c0                	test   %eax,%eax
  40129e:	74 b6                	je     401256 <main+0x86>
  4012a0:	eb da                	jmp    40127c <main+0xac>
  4012a2:	89 fe                	mov    %edi,%esi
  4012a4:	48 89 d9             	mov    %rbx,%rcx
  4012a7:	48 8d 15 d2 2e 00 00 	lea    0x2ed2(%rip),%rdx        # 404180 <userhand>
  4012ae:	bf 01 00 00 00       	mov    $0x1,%edi
  4012b3:	e8 58 08 00 00       	callq  401b10 <goodmove>
  4012b8:	eb c2                	jmp    40127c <main+0xac>
  4012ba:	31 f6                	xor    %esi,%esi
  4012bc:	48 8d 15 7d 2e 00 00 	lea    0x2e7d(%rip),%rdx        # 404140 <comphand>
  4012c3:	e8 dd 07 00 00       	callq  401aa5 <gofish>
  4012c8:	85 c0                	test   %eax,%eax
  4012ca:	74 a9                	je     401275 <main+0xa5>
  4012cc:	e8 19 02 00 00       	callq  4014ea <compmove>
  4012d1:	89 c7                	mov    %eax,%edi
  4012d3:	48 98                	cltq   
  4012d5:	83 3c 83 00          	cmpl   $0x0,(%rbx,%rax,4)
  4012d9:	74 df                	je     4012ba <main+0xea>
  4012db:	89 fe                	mov    %edi,%esi
  4012dd:	48 89 d9             	mov    %rbx,%rcx
  4012e0:	48 8d 15 59 2e 00 00 	lea    0x2e59(%rip),%rdx        # 404140 <comphand>
  4012e7:	31 ff                	xor    %edi,%edi
  4012e9:	e8 22 08 00 00       	callq  401b10 <goodmove>
  4012ee:	eb dc                	jmp    4012cc <main+0xfc>

00000000004012f0 <_start>:
  4012f0:	f3 0f 1e fa          	endbr64 
  4012f4:	31 ed                	xor    %ebp,%ebp
  4012f6:	49 89 d1             	mov    %rdx,%r9
  4012f9:	5e                   	pop    %rsi
  4012fa:	48 89 e2             	mov    %rsp,%rdx
  4012fd:	48 83 e4 f0          	and    $0xfffffffffffffff0,%rsp
  401301:	50                   	push   %rax
  401302:	54                   	push   %rsp
  401303:	49 c7 c0 20 1e 40 00 	mov    $0x401e20,%r8
  40130a:	48 c7 c1 b0 1d 40 00 	mov    $0x401db0,%rcx
  401311:	48 c7 c7 d0 11 40 00 	mov    $0x4011d0,%rdi
  401318:	ff 15 c2 2c 00 00    	callq  *0x2cc2(%rip)        # 403fe0 <__libc_start_main@GLIBC_2.2.5>
  40131e:	f4                   	hlt    
  40131f:	90                   	nop

0000000000401320 <_dl_relocate_static_pie>:
  401320:	f3 0f 1e fa          	endbr64 
  401324:	c3                   	retq   
  401325:	66 2e 0f 1f 84 00 00 	nopw   %cs:0x0(%rax,%rax,1)
  40132c:	00 00 00 
  40132f:	90                   	nop

0000000000401330 <deregister_tm_clones>:
  401330:	b8 90 40 40 00       	mov    $0x404090,%eax
  401335:	48 3d 90 40 40 00    	cmp    $0x404090,%rax
  40133b:	74 13                	je     401350 <deregister_tm_clones+0x20>
  40133d:	b8 00 00 00 00       	mov    $0x0,%eax
  401342:	48 85 c0             	test   %rax,%rax
  401345:	74 09                	je     401350 <deregister_tm_clones+0x20>
  401347:	bf 90 40 40 00       	mov    $0x404090,%edi
  40134c:	ff e0                	jmpq   *%rax
  40134e:	66 90                	xchg   %ax,%ax
  401350:	c3                   	retq   
  401351:	66 66 2e 0f 1f 84 00 	data16 nopw %cs:0x0(%rax,%rax,1)
  401358:	00 00 00 00 
  40135c:	0f 1f 40 00          	nopl   0x0(%rax)

0000000000401360 <register_tm_clones>:
  401360:	be 90 40 40 00       	mov    $0x404090,%esi
  401365:	48 81 ee 90 40 40 00 	sub    $0x404090,%rsi
  40136c:	48 89 f0             	mov    %rsi,%rax
  40136f:	48 c1 ee 3f          	shr    $0x3f,%rsi
  401373:	48 c1 f8 03          	sar    $0x3,%rax
  401377:	48 01 c6             	add    %rax,%rsi
  40137a:	48 d1 fe             	sar    %rsi
  40137d:	74 11                	je     401390 <register_tm_clones+0x30>
  40137f:	b8 00 00 00 00       	mov    $0x0,%eax
  401384:	48 85 c0             	test   %rax,%rax
  401387:	74 07                	je     401390 <register_tm_clones+0x30>
  401389:	bf 90 40 40 00       	mov    $0x404090,%edi
  40138e:	ff e0                	jmpq   *%rax
  401390:	c3                   	retq   
  401391:	66 66 2e 0f 1f 84 00 	data16 nopw %cs:0x0(%rax,%rax,1)
  401398:	00 00 00 00 
  40139c:	0f 1f 40 00          	nopl   0x0(%rax)

00000000004013a0 <__do_global_dtors_aux>:
  4013a0:	f3 0f 1e fa          	endbr64 
  4013a4:	80 3d 1d 2d 00 00 00 	cmpb   $0x0,0x2d1d(%rip)        # 4040c8 <completed.8060>
  4013ab:	75 13                	jne    4013c0 <__do_global_dtors_aux+0x20>
  4013ad:	55                   	push   %rbp
  4013ae:	48 89 e5             	mov    %rsp,%rbp
  4013b1:	e8 7a ff ff ff       	callq  401330 <deregister_tm_clones>
  4013b6:	c6 05 0b 2d 00 00 01 	movb   $0x1,0x2d0b(%rip)        # 4040c8 <completed.8060>
  4013bd:	5d                   	pop    %rbp
  4013be:	c3                   	retq   
  4013bf:	90                   	nop
  4013c0:	c3                   	retq   
  4013c1:	66 66 2e 0f 1f 84 00 	data16 nopw %cs:0x0(%rax,%rax,1)
  4013c8:	00 00 00 00 
  4013cc:	0f 1f 40 00          	nopl   0x0(%rax)

00000000004013d0 <frame_dummy>:
  4013d0:	f3 0f 1e fa          	endbr64 
  4013d4:	eb 8a                	jmp    401360 <register_tm_clones>

00000000004013d6 <promove>:
  4013d6:	f3 0f 1e fa          	endbr64 
  4013da:	31 d2                	xor    %edx,%edx
  4013dc:	48 8d 35 bd 2e 00 00 	lea    0x2ebd(%rip),%rsi        # 4042a0 <userasked>
  4013e3:	48 8d 3d 56 2d 00 00 	lea    0x2d56(%rip),%rdi        # 404140 <comphand>
  4013ea:	83 3c 96 00          	cmpl   $0x0,(%rsi,%rdx,4)
  4013ee:	89 d0                	mov    %edx,%eax
  4013f0:	74 15                	je     401407 <promove+0x31>
  4013f2:	8b 0c 97             	mov    (%rdi,%rdx,4),%ecx
  4013f5:	ff c9                	dec    %ecx
  4013f7:	83 f9 02             	cmp    $0x2,%ecx
  4013fa:	77 0b                	ja     401407 <promove+0x31>
  4013fc:	48 63 d2             	movslq %edx,%rdx
  4013ff:	c7 04 96 00 00 00 00 	movl   $0x0,(%rsi,%rdx,4)
  401406:	c3                   	retq   
  401407:	48 ff c2             	inc    %rdx
  40140a:	48 83 fa 0d          	cmp    $0xd,%rdx
  40140e:	75 da                	jne    4013ea <promove+0x14>
  401410:	51                   	push   %rcx
  401411:	e8 5a fd ff ff       	callq  401170 <lrand48@plt>
  401416:	b9 03 00 00 00       	mov    $0x3,%ecx
  40141b:	48 99                	cqto   
  40141d:	48 f7 f9             	idiv   %rcx
  401420:	48 ff ca             	dec    %rdx
  401423:	75 3e                	jne    401463 <promove+0x8d>
  401425:	48 8d 35 14 2d 00 00 	lea    0x2d14(%rip),%rsi        # 404140 <comphand>
  40142c:	31 d2                	xor    %edx,%edx
  40142e:	48 89 f1             	mov    %rsi,%rcx
  401431:	8b 3c 96             	mov    (%rsi,%rdx,4),%edi
  401434:	89 d0                	mov    %edx,%eax
  401436:	48 ff c2             	inc    %rdx
  401439:	83 e7 fb             	and    $0xfffffffb,%edi
  40143c:	74 f3                	je     401431 <promove+0x5b>
  40143e:	8d 50 01             	lea    0x1(%rax),%edx
  401441:	48 63 d2             	movslq %edx,%rdx
  401444:	83 fa 0c             	cmp    $0xc,%edx
  401447:	0f 8f 9b 00 00 00    	jg     4014e8 <promove+0x112>
  40144d:	8b 34 91             	mov    (%rcx,%rdx,4),%esi
  401450:	83 fe 04             	cmp    $0x4,%esi
  401453:	74 09                	je     40145e <promove+0x88>
  401455:	48 63 f8             	movslq %eax,%rdi
  401458:	3b 34 b9             	cmp    (%rcx,%rdi,4),%esi
  40145b:	0f 4f c2             	cmovg  %edx,%eax
  40145e:	48 ff c2             	inc    %rdx
  401461:	eb e1                	jmp    401444 <promove+0x6e>
  401463:	e8 08 fd ff ff       	callq  401170 <lrand48@plt>
  401468:	b9 00 04 00 00       	mov    $0x400,%ecx
  40146d:	48 99                	cqto   
  40146f:	48 f7 f9             	idiv   %rcx
  401472:	48 81 fa d3 02 00 00 	cmp    $0x2d3,%rdx
  401479:	75 27                	jne    4014a2 <promove+0xcc>
  40147b:	31 d2                	xor    %edx,%edx
  40147d:	48 8d 0d fc 2c 00 00 	lea    0x2cfc(%rip),%rcx        # 404180 <userhand>
  401484:	48 8d 35 b5 2c 00 00 	lea    0x2cb5(%rip),%rsi        # 404140 <comphand>
  40148b:	83 3c 91 00          	cmpl   $0x0,(%rcx,%rdx,4)
  40148f:	89 d0                	mov    %edx,%eax
  401491:	74 06                	je     401499 <promove+0xc3>
  401493:	83 3c 96 00          	cmpl   $0x0,(%rsi,%rdx,4)
  401497:	75 4f                	jne    4014e8 <promove+0x112>
  401499:	48 ff c2             	inc    %rdx
  40149c:	48 83 fa 0d          	cmp    $0xd,%rdx
  4014a0:	75 e9                	jne    40148b <promove+0xb5>
  4014a2:	48 8d 35 57 2c 00 00 	lea    0x2c57(%rip),%rsi        # 404100 <asked>
  4014a9:	48 8d 0d 90 2c 00 00 	lea    0x2c90(%rip),%rcx        # 404140 <comphand>
  4014b0:	48 8d 7e 34          	lea    0x34(%rsi),%rdi
  4014b4:	31 d2                	xor    %edx,%edx
  4014b6:	89 d0                	mov    %edx,%eax
  4014b8:	f7 04 91 fb ff ff ff 	testl  $0xfffffffb,(%rcx,%rdx,4)
  4014bf:	74 06                	je     4014c7 <promove+0xf1>
  4014c1:	83 3c 96 00          	cmpl   $0x0,(%rsi,%rdx,4)
  4014c5:	74 21                	je     4014e8 <promove+0x112>
  4014c7:	48 ff c2             	inc    %rdx
  4014ca:	48 83 fa 0d          	cmp    $0xd,%rdx
  4014ce:	75 e6                	jne    4014b6 <promove+0xe0>
  4014d0:	48 8d 05 29 2c 00 00 	lea    0x2c29(%rip),%rax        # 404100 <asked>
  4014d7:	c7 00 00 00 00 00    	movl   $0x0,(%rax)
  4014dd:	48 83 c0 04          	add    $0x4,%rax
  4014e1:	48 39 f8             	cmp    %rdi,%rax
  4014e4:	75 f1                	jne    4014d7 <promove+0x101>
  4014e6:	eb cc                	jmp    4014b4 <promove+0xde>
  4014e8:	5a                   	pop    %rdx
  4014e9:	c3                   	retq   

00000000004014ea <compmove>:
  4014ea:	f3 0f 1e fa          	endbr64 
  4014ee:	51                   	push   %rcx
  4014ef:	83 3d ea 2b 00 00 00 	cmpl   $0x0,0x2bea(%rip)        # 4040e0 <promode>
  4014f6:	b9 0d 00 00 00       	mov    $0xd,%ecx
  4014fb:	48 8d 35 3e 2c 00 00 	lea    0x2c3e(%rip),%rsi        # 404140 <comphand>
  401502:	8b 15 c4 2b 00 00    	mov    0x2bc4(%rip),%edx        # 4040cc <lmove.4772>
  401508:	74 0d                	je     401517 <compmove+0x2d>
  40150a:	e8 c7 fe ff ff       	callq  4013d6 <promove>
  40150f:	89 05 b7 2b 00 00    	mov    %eax,0x2bb7(%rip)        # 4040cc <lmove.4772>
  401515:	eb 18                	jmp    40152f <compmove+0x45>
  401517:	8d 42 01             	lea    0x1(%rdx),%eax
  40151a:	99                   	cltd   
  40151b:	f7 f9                	idiv   %ecx
  40151d:	48 63 c2             	movslq %edx,%rax
  401520:	f7 04 86 fb ff ff ff 	testl  $0xfffffffb,(%rsi,%rax,4)
  401527:	74 ee                	je     401517 <compmove+0x2d>
  401529:	89 15 9d 2b 00 00    	mov    %edx,0x2b9d(%rip)        # 4040cc <lmove.4772>
  40152f:	48 63 05 96 2b 00 00 	movslq 0x2b96(%rip),%rax        # 4040cc <lmove.4772>
  401536:	48 8d 15 c3 2b 00 00 	lea    0x2bc3(%rip),%rdx        # 404100 <asked>
  40153d:	bf 01 00 00 00       	mov    $0x1,%edi
  401542:	48 8d 35 bb 0a 00 00 	lea    0xabb(%rip),%rsi        # 402004 <_IO_stdin_used+0x4>
  401549:	c7 04 82 01 00 00 00 	movl   $0x1,(%rdx,%rax,4)
  401550:	48 8d 15 49 28 00 00 	lea    0x2849(%rip),%rdx        # 403da0 <cards>
  401557:	48 8b 14 c2          	mov    (%rdx,%rax,8),%rdx
  40155b:	31 c0                	xor    %eax,%eax
  40155d:	e8 2e fc ff ff       	callq  401190 <__printf_chk@plt>
  401562:	8b 05 64 2b 00 00    	mov    0x2b64(%rip),%eax        # 4040cc <lmove.4772>
  401568:	5a                   	pop    %rdx
  401569:	c3                   	retq   

000000000040156a <printplayer>:
  40156a:	f3 0f 1e fa          	endbr64 
  40156e:	85 ff                	test   %edi,%edi
  401570:	74 05                	je     401577 <printplayer+0xd>
  401572:	ff cf                	dec    %edi
  401574:	74 0a                	je     401580 <printplayer+0x16>
  401576:	c3                   	retq   
  401577:	48 8d 35 9a 0a 00 00 	lea    0xa9a(%rip),%rsi        # 402018 <_IO_stdin_used+0x18>
  40157e:	eb 07                	jmp    401587 <printplayer+0x1d>
  401580:	48 8d 35 94 0a 00 00 	lea    0xa94(%rip),%rsi        # 40201b <_IO_stdin_used+0x1b>
  401587:	bf 01 00 00 00       	mov    $0x1,%edi
  40158c:	31 c0                	xor    %eax,%eax
  40158e:	e9 fd fb ff ff       	jmpq   401190 <__printf_chk@plt>

0000000000401593 <printhand>:
  401593:	f3 0f 1e fa          	endbr64 
  401597:	41 56                	push   %r14
  401599:	4c 8d 35 00 28 00 00 	lea    0x2800(%rip),%r14        # 403da0 <cards>
  4015a0:	41 55                	push   %r13
  4015a2:	41 54                	push   %r12
  4015a4:	45 31 e4             	xor    %r12d,%r12d
  4015a7:	55                   	push   %rbp
  4015a8:	48 89 fd             	mov    %rdi,%rbp
  4015ab:	53                   	push   %rbx
  4015ac:	31 db                	xor    %ebx,%ebx
  4015ae:	44 8b 6c 9d 00       	mov    0x0(%rbp,%rbx,4),%r13d
  4015b3:	41 83 fd 03          	cmp    $0x3,%r13d
  4015b7:	7f 1e                	jg     4015d7 <printhand+0x44>
  4015b9:	41 ff cd             	dec    %r13d
  4015bc:	78 1c                	js     4015da <printhand+0x47>
  4015be:	49 8b 14 de          	mov    (%r14,%rbx,8),%rdx
  4015c2:	48 8d 35 d1 0b 00 00 	lea    0xbd1(%rip),%rsi        # 40219a <_IO_stdin_used+0x19a>
  4015c9:	bf 01 00 00 00       	mov    $0x1,%edi
  4015ce:	31 c0                	xor    %eax,%eax
  4015d0:	e8 bb fb ff ff       	callq  401190 <__printf_chk@plt>
  4015d5:	eb e2                	jmp    4015b9 <printhand+0x26>
  4015d7:	41 ff c4             	inc    %r12d
  4015da:	48 ff c3             	inc    %rbx
  4015dd:	48 83 fb 0d          	cmp    $0xd,%rbx
  4015e1:	75 cb                	jne    4015ae <printhand+0x1b>
  4015e3:	45 85 e4             	test   %r12d,%r12d
  4015e6:	74 58                	je     401640 <printhand+0xad>
  4015e8:	41 ff cc             	dec    %r12d
  4015eb:	48 8d 05 c6 0b 00 00 	lea    0xbc6(%rip),%rax        # 4021b8 <_IO_stdin_used+0x1b8>
  4015f2:	48 8d 15 a3 0b 00 00 	lea    0xba3(%rip),%rdx        # 40219c <_IO_stdin_used+0x19c>
  4015f9:	bf 01 00 00 00       	mov    $0x1,%edi
  4015fe:	48 0f 44 d0          	cmove  %rax,%rdx
  401602:	48 8d 35 17 0a 00 00 	lea    0xa17(%rip),%rsi        # 402020 <_IO_stdin_used+0x20>
  401609:	31 c0                	xor    %eax,%eax
  40160b:	31 db                	xor    %ebx,%ebx
  40160d:	4c 8d 25 8c 27 00 00 	lea    0x278c(%rip),%r12        # 403da0 <cards>
  401614:	e8 77 fb ff ff       	callq  401190 <__printf_chk@plt>
  401619:	83 7c 9d 00 04       	cmpl   $0x4,0x0(%rbp,%rbx,4)
  40161e:	75 17                	jne    401637 <printhand+0xa4>
  401620:	49 8b 14 dc          	mov    (%r12,%rbx,8),%rdx
  401624:	48 8d 35 6f 0b 00 00 	lea    0xb6f(%rip),%rsi        # 40219a <_IO_stdin_used+0x19a>
  40162b:	bf 01 00 00 00       	mov    $0x1,%edi
  401630:	31 c0                	xor    %eax,%eax
  401632:	e8 59 fb ff ff       	callq  401190 <__printf_chk@plt>
  401637:	48 ff c3             	inc    %rbx
  40163a:	48 83 fb 0d          	cmp    $0xd,%rbx
  40163e:	75 d9                	jne    401619 <printhand+0x86>
  401640:	5b                   	pop    %rbx
  401641:	bf 0a 00 00 00       	mov    $0xa,%edi
  401646:	5d                   	pop    %rbp
  401647:	41 5c                	pop    %r12
  401649:	41 5d                	pop    %r13
  40164b:	41 5e                	pop    %r14
  40164d:	e9 ae fa ff ff       	jmpq   401100 <putchar@plt>

0000000000401652 <countcards>:
  401652:	f3 0f 1e fa          	endbr64 
  401656:	31 c0                	xor    %eax,%eax
  401658:	45 31 c0             	xor    %r8d,%r8d
  40165b:	44 03 04 07          	add    (%rdi,%rax,1),%r8d
  40165f:	48 83 c0 04          	add    $0x4,%rax
  401663:	48 83 f8 34          	cmp    $0x34,%rax
  401667:	75 f2                	jne    40165b <countcards+0x9>
  401669:	44 89 c0             	mov    %r8d,%eax
  40166c:	c3                   	retq   

000000000040166d <countbooks>:
  40166d:	f3 0f 1e fa          	endbr64 
  401671:	41 55                	push   %r13
  401673:	4c 8d 2d 26 27 00 00 	lea    0x2726(%rip),%r13        # 403da0 <cards>
  40167a:	41 54                	push   %r12
  40167c:	45 31 e4             	xor    %r12d,%r12d
  40167f:	55                   	push   %rbp
  401680:	48 89 fd             	mov    %rdi,%rbp
  401683:	53                   	push   %rbx
  401684:	31 db                	xor    %ebx,%ebx
  401686:	51                   	push   %rcx
  401687:	83 7c 9d 00 04       	cmpl   $0x4,0x0(%rbp,%rbx,4)
  40168c:	75 1b                	jne    4016a9 <countbooks+0x3c>
  40168e:	49 8b 54 dd 00       	mov    0x0(%r13,%rbx,8),%rdx
  401693:	bf 01 00 00 00       	mov    $0x1,%edi
  401698:	31 c0                	xor    %eax,%eax
  40169a:	41 ff c4             	inc    %r12d
  40169d:	48 8d 35 f6 0a 00 00 	lea    0xaf6(%rip),%rsi        # 40219a <_IO_stdin_used+0x19a>
  4016a4:	e8 e7 fa ff ff       	callq  401190 <__printf_chk@plt>
  4016a9:	48 ff c3             	inc    %rbx
  4016ac:	48 83 fb 0d          	cmp    $0xd,%rbx
  4016b0:	75 d5                	jne    401687 <countbooks+0x1a>
  4016b2:	45 85 e4             	test   %r12d,%r12d
  4016b5:	75 13                	jne    4016ca <countbooks+0x5d>
  4016b7:	48 8d 35 6f 09 00 00 	lea    0x96f(%rip),%rsi        # 40202d <_IO_stdin_used+0x2d>
  4016be:	bf 01 00 00 00       	mov    $0x1,%edi
  4016c3:	31 c0                	xor    %eax,%eax
  4016c5:	e8 c6 fa ff ff       	callq  401190 <__printf_chk@plt>
  4016ca:	bf 0a 00 00 00       	mov    $0xa,%edi
  4016cf:	e8 2c fa ff ff       	callq  401100 <putchar@plt>
  4016d4:	5a                   	pop    %rdx
  4016d5:	44 89 e0             	mov    %r12d,%eax
  4016d8:	5b                   	pop    %rbx
  4016d9:	5d                   	pop    %rbp
  4016da:	41 5c                	pop    %r12
  4016dc:	41 5d                	pop    %r13
  4016de:	c3                   	retq   

00000000004016df <usermove>:
  4016df:	f3 0f 1e fa          	endbr64 
  4016e3:	41 55                	push   %r13
  4016e5:	48 8d 35 47 09 00 00 	lea    0x947(%rip),%rsi        # 402033 <_IO_stdin_used+0x33>
  4016ec:	bf 01 00 00 00       	mov    $0x1,%edi
  4016f1:	41 54                	push   %r12
  4016f3:	4c 8d 25 86 2a 00 00 	lea    0x2a86(%rip),%r12        # 404180 <userhand>
  4016fa:	55                   	push   %rbp
  4016fb:	53                   	push   %rbx
  4016fc:	48 81 ec 18 01 00 00 	sub    $0x118,%rsp
  401703:	64 48 8b 04 25 28 00 	mov    %fs:0x28,%rax
  40170a:	00 00 
  40170c:	48 89 84 24 08 01 00 	mov    %rax,0x108(%rsp)
  401713:	00 
  401714:	31 c0                	xor    %eax,%eax
  401716:	e8 75 fa ff ff       	callq  401190 <__printf_chk@plt>
  40171b:	48 8d 3d 5e 2a 00 00 	lea    0x2a5e(%rip),%rdi        # 404180 <userhand>
  401722:	e8 6c fe ff ff       	callq  401593 <printhand>
  401727:	48 8d 6c 24 08       	lea    0x8(%rsp),%rbp
  40172c:	48 8d 35 0f 09 00 00 	lea    0x90f(%rip),%rsi        # 402042 <_IO_stdin_used+0x42>
  401733:	bf 01 00 00 00       	mov    $0x1,%edi
  401738:	31 c0                	xor    %eax,%eax
  40173a:	e8 51 fa ff ff       	callq  401190 <__printf_chk@plt>
  40173f:	48 8b 3d 5a 29 00 00 	mov    0x295a(%rip),%rdi        # 4040a0 <stdout@@GLIBC_2.2.5>
  401746:	e8 15 fa ff ff       	callq  401160 <fflush@plt>
  40174b:	48 8b 15 5e 29 00 00 	mov    0x295e(%rip),%rdx        # 4040b0 <stdin@@GLIBC_2.2.5>
  401752:	be 00 01 00 00       	mov    $0x100,%esi
  401757:	48 89 ef             	mov    %rbp,%rdi
  40175a:	e8 e1 f9 ff ff       	callq  401140 <fgets@plt>
  40175f:	48 85 c0             	test   %rax,%rax
  401762:	75 07                	jne    40176b <usermove+0x8c>
  401764:	31 ff                	xor    %edi,%edi
  401766:	e8 45 fa ff ff       	callq  4011b0 <exit@plt>
  40176b:	8a 44 24 08          	mov    0x8(%rsp),%al
  40176f:	84 c0                	test   %al,%al
  401771:	74 b9                	je     40172c <usermove+0x4d>
  401773:	3c 0a                	cmp    $0xa,%al
  401775:	75 4b                	jne    4017c2 <usermove+0xe3>
  401777:	48 8d 3d c2 29 00 00 	lea    0x29c2(%rip),%rdi        # 404140 <comphand>
  40177e:	e8 cf fe ff ff       	callq  401652 <countcards>
  401783:	8b 0d 07 2b 00 00    	mov    0x2b07(%rip),%ecx        # 404290 <curcard>
  401789:	bf 01 00 00 00       	mov    $0x1,%edi
  40178e:	48 8d 35 be 08 00 00 	lea    0x8be(%rip),%rsi        # 402053 <_IO_stdin_used+0x53>
  401795:	89 c2                	mov    %eax,%edx
  401797:	31 c0                	xor    %eax,%eax
  401799:	e8 f2 f9 ff ff       	callq  401190 <__printf_chk@plt>
  40179e:	48 8d 35 d4 08 00 00 	lea    0x8d4(%rip),%rsi        # 402079 <_IO_stdin_used+0x79>
  4017a5:	bf 01 00 00 00       	mov    $0x1,%edi
  4017aa:	31 c0                	xor    %eax,%eax
  4017ac:	e8 df f9 ff ff       	callq  401190 <__printf_chk@plt>
  4017b1:	48 8d 3d 88 29 00 00 	lea    0x2988(%rip),%rdi        # 404140 <comphand>
  4017b8:	e8 b0 fe ff ff       	callq  40166d <countbooks>
  4017bd:	e9 65 ff ff ff       	jmpq   401727 <usermove+0x48>
  4017c2:	31 c0                	xor    %eax,%eax
  4017c4:	48 83 c9 ff          	or     $0xffffffffffffffff,%rcx
  4017c8:	48 8d 35 b4 08 00 00 	lea    0x8b4(%rip),%rsi        # 402083 <_IO_stdin_used+0x83>
  4017cf:	48 89 ef             	mov    %rbp,%rdi
  4017d2:	f2 ae                	repnz scas %es:(%rdi),%al
  4017d4:	48 89 ef             	mov    %rbp,%rdi
  4017d7:	48 f7 d1             	not    %rcx
  4017da:	c6 44 0c 06 00       	movb   $0x0,0x6(%rsp,%rcx,1)
  4017df:	e8 2c f9 ff ff       	callq  401110 <strcasecmp@plt>
  4017e4:	0b 05 f6 28 00 00    	or     0x28f6(%rip),%eax        # 4040e0 <promode>
  4017ea:	75 13                	jne    4017ff <usermove+0x120>
  4017ec:	c7 05 ea 28 00 00 01 	movl   $0x1,0x28ea(%rip)        # 4040e0 <promode>
  4017f3:	00 00 00 
  4017f6:	48 8d 3d 88 08 00 00 	lea    0x888(%rip),%rdi        # 402085 <_IO_stdin_used+0x85>
  4017fd:	eb 42                	jmp    401841 <usermove+0x162>
  4017ff:	48 8d 35 92 08 00 00 	lea    0x892(%rip),%rsi        # 402098 <_IO_stdin_used+0x98>
  401806:	48 89 ef             	mov    %rbp,%rdi
  401809:	e8 02 f9 ff ff       	callq  401110 <strcasecmp@plt>
  40180e:	85 c0                	test   %eax,%eax
  401810:	0f 84 4e ff ff ff    	je     401764 <usermove+0x85>
  401816:	48 8d 1d 83 25 00 00 	lea    0x2583(%rip),%rbx        # 403da0 <cards>
  40181d:	49 89 dd             	mov    %rbx,%r13
  401820:	48 8b 3b             	mov    (%rbx),%rdi
  401823:	48 85 ff             	test   %rdi,%rdi
  401826:	74 12                	je     40183a <usermove+0x15b>
  401828:	48 89 ee             	mov    %rbp,%rsi
  40182b:	e8 e0 f8 ff ff       	callq  401110 <strcasecmp@plt>
  401830:	85 c0                	test   %eax,%eax
  401832:	74 17                	je     40184b <usermove+0x16c>
  401834:	48 83 c3 08          	add    $0x8,%rbx
  401838:	eb e6                	jmp    401820 <usermove+0x141>
  40183a:	48 8d 3d ad 08 00 00 	lea    0x8ad(%rip),%rdi        # 4020ee <_IO_stdin_used+0xee>
  401841:	e8 da f8 ff ff       	callq  401120 <puts@plt>
  401846:	e9 dc fe ff ff       	jmpq   401727 <usermove+0x48>
  40184b:	48 89 d8             	mov    %rbx,%rax
  40184e:	4c 29 e8             	sub    %r13,%rax
  401851:	48 c1 f8 03          	sar    $0x3,%rax
  401855:	48 63 d8             	movslq %eax,%rbx
  401858:	41 83 3c 9c 00       	cmpl   $0x0,(%r12,%rbx,4)
  40185d:	74 26                	je     401885 <usermove+0x1a6>
  40185f:	48 8d 15 3a 2a 00 00 	lea    0x2a3a(%rip),%rdx        # 4042a0 <userasked>
  401866:	c7 04 9a 01 00 00 00 	movl   $0x1,(%rdx,%rbx,4)
  40186d:	48 8b b4 24 08 01 00 	mov    0x108(%rsp),%rsi
  401874:	00 
  401875:	64 48 33 34 25 28 00 	xor    %fs:0x28,%rsi
  40187c:	00 00 
  40187e:	74 6b                	je     4018eb <usermove+0x20c>
  401880:	e8 ab f8 ff ff       	callq  401130 <__stack_chk_fail@plt>
  401885:	e8 e6 f8 ff ff       	callq  401170 <lrand48@plt>
  40188a:	b9 03 00 00 00       	mov    $0x3,%ecx
  40188f:	48 99                	cqto   
  401891:	48 f7 f9             	idiv   %rcx
  401894:	48 ff ca             	dec    %rdx
  401897:	75 0e                	jne    4018a7 <usermove+0x1c8>
  401899:	48 8d 3d fd 07 00 00 	lea    0x7fd(%rip),%rdi        # 40209d <_IO_stdin_used+0x9d>
  4018a0:	e8 7b f8 ff ff       	callq  401120 <puts@plt>
  4018a5:	eb 18                	jmp    4018bf <usermove+0x1e0>
  4018a7:	49 8b 54 dd 00       	mov    0x0(%r13,%rbx,8),%rdx
  4018ac:	48 8d 35 07 08 00 00 	lea    0x807(%rip),%rsi        # 4020ba <_IO_stdin_used+0xba>
  4018b3:	bf 01 00 00 00       	mov    $0x1,%edi
  4018b8:	31 c0                	xor    %eax,%eax
  4018ba:	e8 d1 f8 ff ff       	callq  401190 <__printf_chk@plt>
  4018bf:	e8 ac f8 ff ff       	callq  401170 <lrand48@plt>
  4018c4:	b9 04 00 00 00       	mov    $0x4,%ecx
  4018c9:	48 99                	cqto   
  4018cb:	48 f7 f9             	idiv   %rcx
  4018ce:	48 ff ca             	dec    %rdx
  4018d1:	75 0c                	jne    4018df <usermove+0x200>
  4018d3:	48 8d 3d fa 07 00 00 	lea    0x7fa(%rip),%rdi        # 4020d4 <_IO_stdin_used+0xd4>
  4018da:	e8 41 f8 ff ff       	callq  401120 <puts@plt>
  4018df:	48 8d 3d fb 07 00 00 	lea    0x7fb(%rip),%rdi        # 4020e1 <_IO_stdin_used+0xe1>
  4018e6:	e9 56 ff ff ff       	jmpq   401841 <usermove+0x162>
  4018eb:	48 81 c4 18 01 00 00 	add    $0x118,%rsp
  4018f2:	5b                   	pop    %rbx
  4018f3:	5d                   	pop    %rbp
  4018f4:	41 5c                	pop    %r12
  4018f6:	41 5d                	pop    %r13
  4018f8:	c3                   	retq   

00000000004018f9 <chkwinner>:
  4018f9:	f3 0f 1e fa          	endbr64 
  4018fd:	55                   	push   %rbp
  4018fe:	31 c0                	xor    %eax,%eax
  401900:	53                   	push   %rbx
  401901:	52                   	push   %rdx
  401902:	8b 1c 86             	mov    (%rsi,%rax,4),%ebx
  401905:	8d 53 ff             	lea    -0x1(%rbx),%edx
  401908:	83 fa 02             	cmp    $0x2,%edx
  40190b:	0f 86 e6 00 00 00    	jbe    4019f7 <chkwinner+0xfe>
  401911:	48 ff c0             	inc    %rax
  401914:	48 83 f8 0d          	cmp    $0xd,%rax
  401918:	75 e8                	jne    401902 <chkwinner+0x9>
  40191a:	e8 4b fc ff ff       	callq  40156a <printplayer>
  40191f:	48 8d 3d dc 07 00 00 	lea    0x7dc(%rip),%rdi        # 402102 <_IO_stdin_used+0x102>
  401926:	e8 f5 f7 ff ff       	callq  401120 <puts@plt>
  40192b:	48 8d 35 47 07 00 00 	lea    0x747(%rip),%rsi        # 402079 <_IO_stdin_used+0x79>
  401932:	bf 01 00 00 00       	mov    $0x1,%edi
  401937:	31 c0                	xor    %eax,%eax
  401939:	e8 52 f8 ff ff       	callq  401190 <__printf_chk@plt>
  40193e:	48 8d 3d fb 27 00 00 	lea    0x27fb(%rip),%rdi        # 404140 <comphand>
  401945:	e8 23 fd ff ff       	callq  40166d <countbooks>
  40194a:	48 8d 35 cc 07 00 00 	lea    0x7cc(%rip),%rsi        # 40211d <_IO_stdin_used+0x11d>
  401951:	bf 01 00 00 00       	mov    $0x1,%edi
  401956:	89 c5                	mov    %eax,%ebp
  401958:	31 c0                	xor    %eax,%eax
  40195a:	e8 31 f8 ff ff       	callq  401190 <__printf_chk@plt>
  40195f:	48 8d 3d 1a 28 00 00 	lea    0x281a(%rip),%rdi        # 404180 <userhand>
  401966:	e8 02 fd ff ff       	callq  40166d <countbooks>
  40196b:	89 ea                	mov    %ebp,%edx
  40196d:	bf 01 00 00 00       	mov    $0x1,%edi
  401972:	48 8d 35 b0 07 00 00 	lea    0x7b0(%rip),%rsi        # 402129 <_IO_stdin_used+0x129>
  401979:	89 c3                	mov    %eax,%ebx
  40197b:	89 c1                	mov    %eax,%ecx
  40197d:	31 c0                	xor    %eax,%eax
  40197f:	e8 0c f8 ff ff       	callq  401190 <__printf_chk@plt>
  401984:	39 dd                	cmp    %ebx,%ebp
  401986:	7d 2d                	jge    4019b5 <chkwinner+0xbc>
  401988:	48 8d 3d b4 07 00 00 	lea    0x7b4(%rip),%rdi        # 402143 <_IO_stdin_used+0x143>
  40198f:	e8 8c f7 ff ff       	callq  401120 <puts@plt>
  401994:	e8 d7 f7 ff ff       	callq  401170 <lrand48@plt>
  401999:	b9 00 04 00 00       	mov    $0x400,%ecx
  40199e:	48 8d 3d aa 07 00 00 	lea    0x7aa(%rip),%rdi        # 40214f <_IO_stdin_used+0x14f>
  4019a5:	48 99                	cqto   
  4019a7:	48 f7 f9             	idiv   %rcx
  4019aa:	48 81 fa d3 02 00 00 	cmp    $0x2d3,%rdx
  4019b1:	75 3d                	jne    4019f0 <chkwinner+0xf7>
  4019b3:	eb 36                	jmp    4019eb <chkwinner+0xf2>
  4019b5:	7e 2d                	jle    4019e4 <chkwinner+0xeb>
  4019b7:	48 8d 3d b2 07 00 00 	lea    0x7b2(%rip),%rdi        # 402170 <_IO_stdin_used+0x170>
  4019be:	e8 5d f7 ff ff       	callq  401120 <puts@plt>
  4019c3:	e8 a8 f7 ff ff       	callq  401170 <lrand48@plt>
  4019c8:	b9 00 04 00 00       	mov    $0x400,%ecx
  4019cd:	48 8d 3d a6 07 00 00 	lea    0x7a6(%rip),%rdi        # 40217a <_IO_stdin_used+0x17a>
  4019d4:	48 99                	cqto   
  4019d6:	48 f7 f9             	idiv   %rcx
  4019d9:	48 81 fa d3 02 00 00 	cmp    $0x2d3,%rdx
  4019e0:	75 0e                	jne    4019f0 <chkwinner+0xf7>
  4019e2:	eb 07                	jmp    4019eb <chkwinner+0xf2>
  4019e4:	48 8d 3d a5 07 00 00 	lea    0x7a5(%rip),%rdi        # 402190 <_IO_stdin_used+0x190>
  4019eb:	e8 30 f7 ff ff       	callq  401120 <puts@plt>
  4019f0:	31 ff                	xor    %edi,%edi
  4019f2:	e8 b9 f7 ff ff       	callq  4011b0 <exit@plt>
  4019f7:	58                   	pop    %rax
  4019f8:	5b                   	pop    %rbx
  4019f9:	5d                   	pop    %rbp
  4019fa:	c3                   	retq   

00000000004019fb <drawcard>:
  4019fb:	f3 0f 1e fa          	endbr64 
  4019ff:	8b 05 8b 28 00 00    	mov    0x288b(%rip),%eax        # 404290 <curcard>
  401a05:	48 8d 15 b4 27 00 00 	lea    0x27b4(%rip),%rdx        # 4041c0 <deck>
  401a0c:	41 56                	push   %r14
  401a0e:	41 55                	push   %r13
  401a10:	ff c8                	dec    %eax
  401a12:	41 54                	push   %r12
  401a14:	49 89 f4             	mov    %rsi,%r12
  401a17:	89 05 73 28 00 00    	mov    %eax,0x2873(%rip)        # 404290 <curcard>
  401a1d:	48 98                	cltq   
  401a1f:	55                   	push   %rbp
  401a20:	89 fd                	mov    %edi,%ebp
  401a22:	53                   	push   %rbx
  401a23:	4c 63 34 82          	movslq (%rdx,%rax,4),%r14
  401a27:	4a 8d 1c b6          	lea    (%rsi,%r14,4),%rbx
  401a2b:	4d 89 f5             	mov    %r14,%r13
  401a2e:	8b 03                	mov    (%rbx),%eax
  401a30:	ff c0                	inc    %eax
  401a32:	89 03                	mov    %eax,(%rbx)
  401a34:	83 f8 04             	cmp    $0x4,%eax
  401a37:	74 05                	je     401a3e <drawcard+0x43>
  401a39:	83 ff 01             	cmp    $0x1,%edi
  401a3c:	75 5b                	jne    401a99 <drawcard+0x9e>
  401a3e:	89 ef                	mov    %ebp,%edi
  401a40:	e8 25 fb ff ff       	callq  40156a <printplayer>
  401a45:	48 8d 05 54 23 00 00 	lea    0x2354(%rip),%rax        # 403da0 <cards>
  401a4c:	bf 01 00 00 00       	mov    $0x1,%edi
  401a51:	48 8d 35 3e 07 00 00 	lea    0x73e(%rip),%rsi        # 402196 <_IO_stdin_used+0x196>
  401a58:	4e 8b 34 f0          	mov    (%rax,%r14,8),%r14
  401a5c:	31 c0                	xor    %eax,%eax
  401a5e:	4c 89 f2             	mov    %r14,%rdx
  401a61:	e8 2a f7 ff ff       	callq  401190 <__printf_chk@plt>
  401a66:	83 3b 04             	cmpl   $0x4,(%rbx)
  401a69:	75 22                	jne    401a8d <drawcard+0x92>
  401a6b:	4c 89 f2             	mov    %r14,%rdx
  401a6e:	48 8d 35 29 07 00 00 	lea    0x729(%rip),%rsi        # 40219e <_IO_stdin_used+0x19e>
  401a75:	bf 01 00 00 00       	mov    $0x1,%edi
  401a7a:	31 c0                	xor    %eax,%eax
  401a7c:	e8 0f f7 ff ff       	callq  401190 <__printf_chk@plt>
  401a81:	4c 89 e6             	mov    %r12,%rsi
  401a84:	89 ef                	mov    %ebp,%edi
  401a86:	e8 6e fe ff ff       	callq  4018f9 <chkwinner>
  401a8b:	eb 0c                	jmp    401a99 <drawcard+0x9e>
  401a8d:	48 8d 3d 02 06 00 00 	lea    0x602(%rip),%rdi        # 402096 <_IO_stdin_used+0x96>
  401a94:	e8 87 f6 ff ff       	callq  401120 <puts@plt>
  401a99:	5b                   	pop    %rbx
  401a9a:	44 89 e8             	mov    %r13d,%eax
  401a9d:	5d                   	pop    %rbp
  401a9e:	41 5c                	pop    %r12
  401aa0:	41 5d                	pop    %r13
  401aa2:	41 5e                	pop    %r14
  401aa4:	c3                   	retq   

0000000000401aa5 <gofish>:
  401aa5:	f3 0f 1e fa          	endbr64 
  401aa9:	41 54                	push   %r12
  401aab:	49 89 d4             	mov    %rdx,%r12
  401aae:	55                   	push   %rbp
  401aaf:	89 f5                	mov    %esi,%ebp
  401ab1:	53                   	push   %rbx
  401ab2:	89 fb                	mov    %edi,%ebx
  401ab4:	bf 01 00 00 00       	mov    $0x1,%edi
  401ab9:	29 f7                	sub    %esi,%edi
  401abb:	e8 aa fa ff ff       	callq  40156a <printplayer>
  401ac0:	48 8d 3d f2 06 00 00 	lea    0x6f2(%rip),%rdi        # 4021b9 <_IO_stdin_used+0x1b9>
  401ac7:	e8 54 f6 ff ff       	callq  401120 <puts@plt>
  401acc:	4c 89 e6             	mov    %r12,%rsi
  401acf:	89 ef                	mov    %ebp,%edi
  401ad1:	e8 25 ff ff ff       	callq  4019fb <drawcard>
  401ad6:	41 89 c0             	mov    %eax,%r8d
  401ad9:	31 c0                	xor    %eax,%eax
  401adb:	41 39 d8             	cmp    %ebx,%r8d
  401ade:	75 2b                	jne    401b0b <gofish+0x66>
  401ae0:	89 ef                	mov    %ebp,%edi
  401ae2:	e8 83 fa ff ff       	callq  40156a <printplayer>
  401ae7:	48 8d 3d da 06 00 00 	lea    0x6da(%rip),%rdi        # 4021c8 <_IO_stdin_used+0x1c8>
  401aee:	e8 2d f6 ff ff       	callq  401120 <puts@plt>
  401af3:	89 ef                	mov    %ebp,%edi
  401af5:	e8 70 fa ff ff       	callq  40156a <printplayer>
  401afa:	48 8d 3d d7 06 00 00 	lea    0x6d7(%rip),%rdi        # 4021d8 <_IO_stdin_used+0x1d8>
  401b01:	e8 1a f6 ff ff       	callq  401120 <puts@plt>
  401b06:	b8 01 00 00 00       	mov    $0x1,%eax
  401b0b:	5b                   	pop    %rbx
  401b0c:	5d                   	pop    %rbp
  401b0d:	41 5c                	pop    %r12
  401b0f:	c3                   	retq   

0000000000401b10 <goodmove>:
  401b10:	f3 0f 1e fa          	endbr64 
  401b14:	41 57                	push   %r15
  401b16:	41 56                	push   %r14
  401b18:	49 89 d6             	mov    %rdx,%r14
  401b1b:	41 55                	push   %r13
  401b1d:	49 89 cd             	mov    %rcx,%r13
  401b20:	41 54                	push   %r12
  401b22:	41 bc 01 00 00 00    	mov    $0x1,%r12d
  401b28:	55                   	push   %rbp
  401b29:	41 29 fc             	sub    %edi,%r12d
  401b2c:	89 fd                	mov    %edi,%ebp
  401b2e:	53                   	push   %rbx
  401b2f:	44 89 e7             	mov    %r12d,%edi
  401b32:	89 f3                	mov    %esi,%ebx
  401b34:	48 83 ec 18          	sub    $0x18,%rsp
  401b38:	e8 2d fa ff ff       	callq  40156a <printplayer>
  401b3d:	48 63 f3             	movslq %ebx,%rsi
  401b40:	bf 01 00 00 00       	mov    $0x1,%edi
  401b45:	48 8d 05 54 22 00 00 	lea    0x2254(%rip),%rax        # 403da0 <cards>
  401b4c:	48 8d 1c b5 00 00 00 	lea    0x0(,%rsi,4),%rbx
  401b53:	00 
  401b54:	4c 8b 3c f0          	mov    (%rax,%rsi,8),%r15
  401b58:	4c 8d 05 59 06 00 00 	lea    0x659(%rip),%r8        # 4021b8 <_IO_stdin_used+0x1b8>
  401b5f:	4d 8d 4c 1d 00       	lea    0x0(%r13,%rbx,1),%r9
  401b64:	48 8d 05 7f 06 00 00 	lea    0x67f(%rip),%rax        # 4021ea <_IO_stdin_used+0x1ea>
  401b6b:	41 8b 11             	mov    (%r9),%edx
  401b6e:	4c 89 f9             	mov    %r15,%rcx
  401b71:	4c 89 4c 24 08       	mov    %r9,0x8(%rsp)
  401b76:	48 8d 35 70 06 00 00 	lea    0x670(%rip),%rsi        # 4021ed <_IO_stdin_used+0x1ed>
  401b7d:	83 fa 01             	cmp    $0x1,%edx
  401b80:	4c 0f 45 c0          	cmovne %rax,%r8
  401b84:	31 c0                	xor    %eax,%eax
  401b86:	e8 05 f6 ff ff       	callq  401190 <__printf_chk@plt>
  401b8b:	4c 8b 4c 24 08       	mov    0x8(%rsp),%r9
  401b90:	49 8d 04 1e          	lea    (%r14,%rbx,1),%rax
  401b94:	41 8b 11             	mov    (%r9),%edx
  401b97:	01 10                	add    %edx,(%rax)
  401b99:	41 c7 01 00 00 00 00 	movl   $0x0,(%r9)
  401ba0:	83 38 04             	cmpl   $0x4,(%rax)
  401ba3:	75 27                	jne    401bcc <goodmove+0xbc>
  401ba5:	89 ef                	mov    %ebp,%edi
  401ba7:	e8 be f9 ff ff       	callq  40156a <printplayer>
  401bac:	bf 01 00 00 00       	mov    $0x1,%edi
  401bb1:	4c 89 fa             	mov    %r15,%rdx
  401bb4:	31 c0                	xor    %eax,%eax
  401bb6:	48 8d 35 e6 05 00 00 	lea    0x5e6(%rip),%rsi        # 4021a3 <_IO_stdin_used+0x1a3>
  401bbd:	e8 ce f5 ff ff       	callq  401190 <__printf_chk@plt>
  401bc2:	4c 89 f6             	mov    %r14,%rsi
  401bc5:	89 ef                	mov    %ebp,%edi
  401bc7:	e8 2d fd ff ff       	callq  4018f9 <chkwinner>
  401bcc:	4c 89 ee             	mov    %r13,%rsi
  401bcf:	44 89 e7             	mov    %r12d,%edi
  401bd2:	e8 22 fd ff ff       	callq  4018f9 <chkwinner>
  401bd7:	89 ef                	mov    %ebp,%edi
  401bd9:	e8 8c f9 ff ff       	callq  40156a <printplayer>
  401bde:	48 83 c4 18          	add    $0x18,%rsp
  401be2:	48 8d 3d 13 06 00 00 	lea    0x613(%rip),%rdi        # 4021fc <_IO_stdin_used+0x1fc>
  401be9:	5b                   	pop    %rbx
  401bea:	5d                   	pop    %rbp
  401beb:	41 5c                	pop    %r12
  401bed:	41 5d                	pop    %r13
  401bef:	41 5e                	pop    %r14
  401bf1:	41 5f                	pop    %r15
  401bf3:	e9 28 f5 ff ff       	jmpq   401120 <puts@plt>

0000000000401bf8 <init>:
  401bf8:	f3 0f 1e fa          	endbr64 
  401bfc:	41 54                	push   %r12
  401bfe:	48 8d 35 bb 25 00 00 	lea    0x25bb(%rip),%rsi        # 4041c0 <deck>
  401c05:	31 c9                	xor    %ecx,%ecx
  401c07:	bf 0d 00 00 00       	mov    $0xd,%edi
  401c0c:	55                   	push   %rbp
  401c0d:	48 89 f5             	mov    %rsi,%rbp
  401c10:	53                   	push   %rbx
  401c11:	c7 05 75 26 00 00 34 	movl   $0x34,0x2675(%rip)        # 404290 <curcard>
  401c18:	00 00 00 
  401c1b:	89 c8                	mov    %ecx,%eax
  401c1d:	99                   	cltd   
  401c1e:	f7 ff                	idiv   %edi
  401c20:	89 14 8e             	mov    %edx,(%rsi,%rcx,4)
  401c23:	48 ff c1             	inc    %rcx
  401c26:	48 83 f9 34          	cmp    $0x34,%rcx
  401c2a:	75 ef                	jne    401c1b <init+0x23>
  401c2c:	31 db                	xor    %ebx,%ebx
  401c2e:	41 bc 34 00 00 00    	mov    $0x34,%r12d
  401c34:	e8 37 f5 ff ff       	callq  401170 <lrand48@plt>
  401c39:	4c 89 e1             	mov    %r12,%rcx
  401c3c:	48 29 d9             	sub    %rbx,%rcx
  401c3f:	48 99                	cqto   
  401c41:	48 f7 f9             	idiv   %rcx
  401c44:	48 85 d2             	test   %rdx,%rdx
  401c47:	74 15                	je     401c5e <init+0x66>
  401c49:	01 da                	add    %ebx,%edx
  401c4b:	8b 44 9d 00          	mov    0x0(%rbp,%rbx,4),%eax
  401c4f:	48 63 d2             	movslq %edx,%rdx
  401c52:	8b 4c 95 00          	mov    0x0(%rbp,%rdx,4),%ecx
  401c56:	89 4c 9d 00          	mov    %ecx,0x0(%rbp,%rbx,4)
  401c5a:	89 44 95 00          	mov    %eax,0x0(%rbp,%rdx,4)
  401c5e:	48 ff c3             	inc    %rbx
  401c61:	48 83 fb 33          	cmp    $0x33,%rbx
  401c65:	75 cd                	jne    401c34 <init+0x3c>
  401c67:	48 63 05 22 26 00 00 	movslq 0x2622(%rip),%rax        # 404290 <curcard>
  401c6e:	4c 8d 15 47 25 00 00 	lea    0x2547(%rip),%r10        # 4041bc <userhand+0x3c>
  401c75:	48 8d 3d 04 25 00 00 	lea    0x2504(%rip),%rdi        # 404180 <userhand>
  401c7c:	4d 8d 4a fc          	lea    -0x4(%r10),%r9
  401c80:	48 8d 0d b9 24 00 00 	lea    0x24b9(%rip),%rcx        # 404140 <comphand>
  401c87:	48 89 c2             	mov    %rax,%rdx
  401c8a:	4c 8d 40 f2          	lea    -0xe(%rax),%r8
  401c8e:	49 63 34 82          	movslq (%r10,%rax,4),%rsi
  401c92:	ff 04 b7             	incl   (%rdi,%rsi,4)
  401c95:	49 63 34 81          	movslq (%r9,%rax,4),%rsi
  401c99:	48 83 e8 02          	sub    $0x2,%rax
  401c9d:	ff 04 b1             	incl   (%rcx,%rsi,4)
  401ca0:	49 39 c0             	cmp    %rax,%r8
  401ca3:	75 e9                	jne    401c8e <init+0x96>
  401ca5:	83 ea 0e             	sub    $0xe,%edx
  401ca8:	5b                   	pop    %rbx
  401ca9:	5d                   	pop    %rbp
  401caa:	89 15 e0 25 00 00    	mov    %edx,0x25e0(%rip)        # 404290 <curcard>
  401cb0:	41 5c                	pop    %r12
  401cb2:	c3                   	retq   

0000000000401cb3 <nrandom>:
  401cb3:	f3 0f 1e fa          	endbr64 
  401cb7:	53                   	push   %rbx
  401cb8:	89 fb                	mov    %edi,%ebx
  401cba:	e8 b1 f4 ff ff       	callq  401170 <lrand48@plt>
  401cbf:	48 63 fb             	movslq %ebx,%rdi
  401cc2:	5b                   	pop    %rbx
  401cc3:	48 99                	cqto   
  401cc5:	48 f7 ff             	idiv   %rdi
  401cc8:	89 d0                	mov    %edx,%eax
  401cca:	c3                   	retq   

0000000000401ccb <getans>:
  401ccb:	f3 0f 1e fa          	endbr64 
  401ccf:	55                   	push   %rbp
  401cd0:	53                   	push   %rbx
  401cd1:	48 89 fb             	mov    %rdi,%rbx
  401cd4:	48 83 ec 28          	sub    $0x28,%rsp
  401cd8:	64 48 8b 04 25 28 00 	mov    %fs:0x28,%rax
  401cdf:	00 00 
  401ce1:	48 89 44 24 18       	mov    %rax,0x18(%rsp)
  401ce6:	31 c0                	xor    %eax,%eax
  401ce8:	48 8d 6c 24 04       	lea    0x4(%rsp),%rbp
  401ced:	48 89 da             	mov    %rbx,%rdx
  401cf0:	48 8d 35 a4 04 00 00 	lea    0x4a4(%rip),%rsi        # 40219b <_IO_stdin_used+0x19b>
  401cf7:	bf 01 00 00 00       	mov    $0x1,%edi
  401cfc:	31 c0                	xor    %eax,%eax
  401cfe:	e8 8d f4 ff ff       	callq  401190 <__printf_chk@plt>
  401d03:	48 8b 3d 96 23 00 00 	mov    0x2396(%rip),%rdi        # 4040a0 <stdout@@GLIBC_2.2.5>
  401d0a:	e8 51 f4 ff ff       	callq  401160 <fflush@plt>
  401d0f:	48 8b 15 9a 23 00 00 	mov    0x239a(%rip),%rdx        # 4040b0 <stdin@@GLIBC_2.2.5>
  401d16:	be 14 00 00 00       	mov    $0x14,%esi
  401d1b:	48 89 ef             	mov    %rbp,%rdi
  401d1e:	e8 1d f4 ff ff       	callq  401140 <fgets@plt>
  401d23:	48 85 c0             	test   %rax,%rax
  401d26:	75 11                	jne    401d39 <getans+0x6e>
  401d28:	bf 0a 00 00 00       	mov    $0xa,%edi
  401d2d:	e8 ce f3 ff ff       	callq  401100 <putchar@plt>
  401d32:	31 ff                	xor    %edi,%edi
  401d34:	e8 77 f4 ff ff       	callq  4011b0 <exit@plt>
  401d39:	8a 44 24 04          	mov    0x4(%rsp),%al
  401d3d:	83 e0 df             	and    $0xffffffdf,%eax
  401d40:	3c 4e                	cmp    $0x4e,%al
  401d42:	74 12                	je     401d56 <getans+0x8b>
  401d44:	3c 59                	cmp    $0x59,%al
  401d46:	74 12                	je     401d5a <getans+0x8f>
  401d48:	48 8d 3d c0 04 00 00 	lea    0x4c0(%rip),%rdi        # 40220f <_IO_stdin_used+0x20f>
  401d4f:	e8 cc f3 ff ff       	callq  401120 <puts@plt>
  401d54:	eb 97                	jmp    401ced <getans+0x22>
  401d56:	31 c0                	xor    %eax,%eax
  401d58:	eb 05                	jmp    401d5f <getans+0x94>
  401d5a:	b8 01 00 00 00       	mov    $0x1,%eax
  401d5f:	48 8b 4c 24 18       	mov    0x18(%rsp),%rcx
  401d64:	64 48 33 0c 25 28 00 	xor    %fs:0x28,%rcx
  401d6b:	00 00 
  401d6d:	74 05                	je     401d74 <getans+0xa9>
  401d6f:	e8 bc f3 ff ff       	callq  401130 <__stack_chk_fail@plt>
  401d74:	48 83 c4 28          	add    $0x28,%rsp
  401d78:	5b                   	pop    %rbx
  401d79:	5d                   	pop    %rbp
  401d7a:	c3                   	retq   

0000000000401d7b <usage>:
  401d7b:	f3 0f 1e fa          	endbr64 
  401d7f:	50                   	push   %rax
  401d80:	58                   	pop    %rax
  401d81:	48 8d 15 c0 04 00 00 	lea    0x4c0(%rip),%rdx        # 402248 <_IO_stdin_used+0x248>
  401d88:	be 01 00 00 00       	mov    $0x1,%esi
  401d8d:	50                   	push   %rax
  401d8e:	48 89 f9             	mov    %rdi,%rcx
  401d91:	48 8b 3d 28 23 00 00 	mov    0x2328(%rip),%rdi        # 4040c0 <stderr@@GLIBC_2.2.5>
  401d98:	31 c0                	xor    %eax,%eax
  401d9a:	e8 21 f4 ff ff       	callq  4011c0 <__fprintf_chk@plt>
  401d9f:	bf 01 00 00 00       	mov    $0x1,%edi
  401da4:	e8 07 f4 ff ff       	callq  4011b0 <exit@plt>
  401da9:	0f 1f 80 00 00 00 00 	nopl   0x0(%rax)

0000000000401db0 <__libc_csu_init>:
  401db0:	f3 0f 1e fa          	endbr64 
  401db4:	41 57                	push   %r15
  401db6:	4c 8d 3d d3 1f 00 00 	lea    0x1fd3(%rip),%r15        # 403d90 <__frame_dummy_init_array_entry>
  401dbd:	41 56                	push   %r14
  401dbf:	49 89 d6             	mov    %rdx,%r14
  401dc2:	41 55                	push   %r13
  401dc4:	49 89 f5             	mov    %rsi,%r13
  401dc7:	41 54                	push   %r12
  401dc9:	41 89 fc             	mov    %edi,%r12d
  401dcc:	55                   	push   %rbp
  401dcd:	48 8d 2d c4 1f 00 00 	lea    0x1fc4(%rip),%rbp        # 403d98 <__do_global_dtors_aux_fini_array_entry>
  401dd4:	53                   	push   %rbx
  401dd5:	4c 29 fd             	sub    %r15,%rbp
  401dd8:	48 83 ec 08          	sub    $0x8,%rsp
  401ddc:	e8 1f f2 ff ff       	callq  401000 <_init>
  401de1:	48 c1 fd 03          	sar    $0x3,%rbp
  401de5:	74 1f                	je     401e06 <__libc_csu_init+0x56>
  401de7:	31 db                	xor    %ebx,%ebx
  401de9:	0f 1f 80 00 00 00 00 	nopl   0x0(%rax)
  401df0:	4c 89 f2             	mov    %r14,%rdx
  401df3:	4c 89 ee             	mov    %r13,%rsi
  401df6:	44 89 e7             	mov    %r12d,%edi
  401df9:	41 ff 14 df          	callq  *(%r15,%rbx,8)
  401dfd:	48 83 c3 01          	add    $0x1,%rbx
  401e01:	48 39 dd             	cmp    %rbx,%rbp
  401e04:	75 ea                	jne    401df0 <__libc_csu_init+0x40>
  401e06:	48 83 c4 08          	add    $0x8,%rsp
  401e0a:	5b                   	pop    %rbx
  401e0b:	5d                   	pop    %rbp
  401e0c:	41 5c                	pop    %r12
  401e0e:	41 5d                	pop    %r13
  401e10:	41 5e                	pop    %r14
  401e12:	41 5f                	pop    %r15
  401e14:	c3                   	retq   
  401e15:	66 66 2e 0f 1f 84 00 	data16 nopw %cs:0x0(%rax,%rax,1)
  401e1c:	00 00 00 00 

0000000000401e20 <__libc_csu_fini>:
  401e20:	f3 0f 1e fa          	endbr64 
  401e24:	c3                   	retq   

Disassembly of section .fini:

0000000000401e28 <_fini>:
  401e28:	f3 0f 1e fa          	endbr64 
  401e2c:	48 83 ec 08          	sub    $0x8,%rsp
  401e30:	48 83 c4 08          	add    $0x8,%rsp
  401e34:	c3                   	retq   
